
AssignmentMemory.ino.elf:     file format elf32-avr


Disassembly of section .text:

00000000 <__vectors>:
       0:	0c 94 35 00 	jmp	0x6a	; 0x6a <__ctors_end>
       4:	0c 94 5d 00 	jmp	0xba	; 0xba <__bad_interrupt>
       8:	0c 94 5d 00 	jmp	0xba	; 0xba <__bad_interrupt>
       c:	0c 94 5d 00 	jmp	0xba	; 0xba <__bad_interrupt>
      10:	0c 94 5d 00 	jmp	0xba	; 0xba <__bad_interrupt>
      14:	0c 94 5d 00 	jmp	0xba	; 0xba <__bad_interrupt>
      18:	0c 94 5d 00 	jmp	0xba	; 0xba <__bad_interrupt>
      1c:	0c 94 5d 00 	jmp	0xba	; 0xba <__bad_interrupt>
      20:	0c 94 5d 00 	jmp	0xba	; 0xba <__bad_interrupt>
      24:	0c 94 5d 00 	jmp	0xba	; 0xba <__bad_interrupt>
      28:	0c 94 5d 00 	jmp	0xba	; 0xba <__bad_interrupt>
      2c:	0c 94 5d 00 	jmp	0xba	; 0xba <__bad_interrupt>
      30:	0c 94 5d 00 	jmp	0xba	; 0xba <__bad_interrupt>
      34:	0c 94 5d 00 	jmp	0xba	; 0xba <__bad_interrupt>
      38:	0c 94 5d 00 	jmp	0xba	; 0xba <__bad_interrupt>
      3c:	0c 94 5d 00 	jmp	0xba	; 0xba <__bad_interrupt>
      40:	0c 94 ac 01 	jmp	0x358	; 0x358 <__vector_16>
      44:	0c 94 5d 00 	jmp	0xba	; 0xba <__bad_interrupt>
      48:	0c 94 e3 04 	jmp	0x9c6	; 0x9c6 <__vector_18>
      4c:	0c 94 c4 05 	jmp	0xb88	; 0xb88 <__vector_19>
      50:	0c 94 5d 00 	jmp	0xba	; 0xba <__bad_interrupt>
      54:	0c 94 5d 00 	jmp	0xba	; 0xba <__bad_interrupt>
      58:	0c 94 5d 00 	jmp	0xba	; 0xba <__bad_interrupt>
      5c:	0c 94 5d 00 	jmp	0xba	; 0xba <__bad_interrupt>
      60:	0c 94 5d 00 	jmp	0xba	; 0xba <__bad_interrupt>
      64:	0c 94 5d 00 	jmp	0xba	; 0xba <__bad_interrupt>

00000068 <__ctors_start>:
      68:	b9 04       	cpc	r11, r9

0000006a <__ctors_end>:
      6a:	11 24       	eor	r1, r1
      6c:	1f be       	out	0x3f, r1	; 63
      6e:	cf ef       	ldi	r28, 0xFF	; 255
      70:	d8 e0       	ldi	r29, 0x08	; 8
      72:	de bf       	out	0x3e, r29	; 62
      74:	cd bf       	out	0x3d, r28	; 61

00000076 <__do_copy_data>:
      76:	15 e0       	ldi	r17, 0x05	; 5
      78:	a0 e0       	ldi	r26, 0x00	; 0
      7a:	b1 e0       	ldi	r27, 0x01	; 1
      7c:	ea e6       	ldi	r30, 0x6A	; 106
      7e:	f6 e1       	ldi	r31, 0x16	; 22
      80:	02 c0       	rjmp	.+4      	; 0x86 <__do_copy_data+0x10>
      82:	05 90       	lpm	r0, Z+
      84:	0d 92       	st	X+, r0
      86:	ae 36       	cpi	r26, 0x6E	; 110
      88:	b1 07       	cpc	r27, r17
      8a:	d9 f7       	brne	.-10     	; 0x82 <__do_copy_data+0xc>

0000008c <__do_clear_bss>:
      8c:	26 e0       	ldi	r18, 0x06	; 6
      8e:	ae e6       	ldi	r26, 0x6E	; 110
      90:	b5 e0       	ldi	r27, 0x05	; 5
      92:	01 c0       	rjmp	.+2      	; 0x96 <.do_clear_bss_start>

00000094 <.do_clear_bss_loop>:
      94:	1d 92       	st	X+, r1

00000096 <.do_clear_bss_start>:
      96:	a1 3e       	cpi	r26, 0xE1	; 225
      98:	b2 07       	cpc	r27, r18
      9a:	e1 f7       	brne	.-8      	; 0x94 <.do_clear_bss_loop>

0000009c <__do_global_ctors>:
      9c:	10 e0       	ldi	r17, 0x00	; 0
      9e:	c5 e3       	ldi	r28, 0x35	; 53
      a0:	d0 e0       	ldi	r29, 0x00	; 0
      a2:	04 c0       	rjmp	.+8      	; 0xac <__do_global_ctors+0x10>
      a4:	21 97       	sbiw	r28, 0x01	; 1
      a6:	fe 01       	movw	r30, r28
      a8:	0e 94 bf 07 	call	0xf7e	; 0xf7e <__tablejump2__>
      ac:	c4 33       	cpi	r28, 0x34	; 52
      ae:	d1 07       	cpc	r29, r17
      b0:	c9 f7       	brne	.-14     	; 0xa4 <__do_global_ctors+0x8>
      b2:	0e 94 96 07 	call	0xf2c	; 0xf2c <main>
      b6:	0c 94 33 0b 	jmp	0x1666	; 0x1666 <_exit>

000000ba <__bad_interrupt>:
      ba:	0c 94 00 00 	jmp	0	; 0x0 <__vectors>

000000be <init>:
      be:	78 94       	sei
      c0:	84 b5       	in	r24, 0x24	; 36
      c2:	82 60       	ori	r24, 0x02	; 2
      c4:	84 bd       	out	0x24, r24	; 36
      c6:	84 b5       	in	r24, 0x24	; 36
      c8:	81 60       	ori	r24, 0x01	; 1
      ca:	84 bd       	out	0x24, r24	; 36
      cc:	85 b5       	in	r24, 0x25	; 37
      ce:	82 60       	ori	r24, 0x02	; 2
      d0:	85 bd       	out	0x25, r24	; 37
      d2:	85 b5       	in	r24, 0x25	; 37
      d4:	81 60       	ori	r24, 0x01	; 1
      d6:	85 bd       	out	0x25, r24	; 37
      d8:	ee e6       	ldi	r30, 0x6E	; 110
      da:	f0 e0       	ldi	r31, 0x00	; 0
      dc:	80 81       	ld	r24, Z
      de:	81 60       	ori	r24, 0x01	; 1
      e0:	80 83       	st	Z, r24
      e2:	e1 e8       	ldi	r30, 0x81	; 129
      e4:	f0 e0       	ldi	r31, 0x00	; 0
      e6:	10 82       	st	Z, r1
      e8:	80 81       	ld	r24, Z
      ea:	82 60       	ori	r24, 0x02	; 2
      ec:	80 83       	st	Z, r24
      ee:	80 81       	ld	r24, Z
      f0:	81 60       	ori	r24, 0x01	; 1
      f2:	80 83       	st	Z, r24
      f4:	e0 e8       	ldi	r30, 0x80	; 128
      f6:	f0 e0       	ldi	r31, 0x00	; 0
      f8:	80 81       	ld	r24, Z
      fa:	81 60       	ori	r24, 0x01	; 1
      fc:	80 83       	st	Z, r24
      fe:	e1 eb       	ldi	r30, 0xB1	; 177
     100:	f0 e0       	ldi	r31, 0x00	; 0
     102:	80 81       	ld	r24, Z
     104:	84 60       	ori	r24, 0x04	; 4
     106:	80 83       	st	Z, r24
     108:	e0 eb       	ldi	r30, 0xB0	; 176
     10a:	f0 e0       	ldi	r31, 0x00	; 0
     10c:	80 81       	ld	r24, Z
     10e:	81 60       	ori	r24, 0x01	; 1
     110:	80 83       	st	Z, r24
     112:	ea e7       	ldi	r30, 0x7A	; 122
     114:	f0 e0       	ldi	r31, 0x00	; 0
     116:	80 81       	ld	r24, Z
     118:	84 60       	ori	r24, 0x04	; 4
     11a:	80 83       	st	Z, r24
     11c:	80 81       	ld	r24, Z
     11e:	82 60       	ori	r24, 0x02	; 2
     120:	80 83       	st	Z, r24
     122:	80 81       	ld	r24, Z
     124:	81 60       	ori	r24, 0x01	; 1
     126:	80 83       	st	Z, r24
     128:	80 81       	ld	r24, Z
     12a:	80 68       	ori	r24, 0x80	; 128
     12c:	80 83       	st	Z, r24
     12e:	10 92 c1 00 	sts	0x00C1, r1	; 0x8000c1 <__data_load_end+0x7fe5e9>
     132:	08 95       	ret

00000134 <_ZN5Print5writeEPKhj>:
     134:	cf 92       	push	r12
     136:	df 92       	push	r13
     138:	ef 92       	push	r14
     13a:	ff 92       	push	r15
     13c:	0f 93       	push	r16
     13e:	1f 93       	push	r17
     140:	cf 93       	push	r28
     142:	df 93       	push	r29
     144:	6c 01       	movw	r12, r24
     146:	7a 01       	movw	r14, r20
     148:	8b 01       	movw	r16, r22
     14a:	c0 e0       	ldi	r28, 0x00	; 0
     14c:	d0 e0       	ldi	r29, 0x00	; 0
     14e:	ce 15       	cp	r28, r14
     150:	df 05       	cpc	r29, r15
     152:	89 f0       	breq	.+34     	; 0x176 <_ZN5Print5writeEPKhj+0x42>
     154:	d8 01       	movw	r26, r16
     156:	6d 91       	ld	r22, X+
     158:	8d 01       	movw	r16, r26
     15a:	d6 01       	movw	r26, r12
     15c:	ed 91       	ld	r30, X+
     15e:	fc 91       	ld	r31, X
     160:	01 90       	ld	r0, Z+
     162:	f0 81       	ld	r31, Z
     164:	e0 2d       	mov	r30, r0
     166:	c6 01       	movw	r24, r12
     168:	09 95       	icall
     16a:	89 2b       	or	r24, r25
     16c:	11 f4       	brne	.+4      	; 0x172 <_ZN5Print5writeEPKhj+0x3e>
     16e:	7e 01       	movw	r14, r28
     170:	02 c0       	rjmp	.+4      	; 0x176 <_ZN5Print5writeEPKhj+0x42>
     172:	21 96       	adiw	r28, 0x01	; 1
     174:	ec cf       	rjmp	.-40     	; 0x14e <_ZN5Print5writeEPKhj+0x1a>
     176:	c7 01       	movw	r24, r14
     178:	df 91       	pop	r29
     17a:	cf 91       	pop	r28
     17c:	1f 91       	pop	r17
     17e:	0f 91       	pop	r16
     180:	ff 90       	pop	r15
     182:	ef 90       	pop	r14
     184:	df 90       	pop	r13
     186:	cf 90       	pop	r12
     188:	08 95       	ret

0000018a <_ZN5Print5writeEPKcj>:
     18a:	dc 01       	movw	r26, r24
     18c:	ed 91       	ld	r30, X+
     18e:	fc 91       	ld	r31, X
     190:	02 80       	ldd	r0, Z+2	; 0x02
     192:	f3 81       	ldd	r31, Z+3	; 0x03
     194:	e0 2d       	mov	r30, r0
     196:	09 94       	ijmp

00000198 <_ZNK6String5c_strEv>:
     198:	fc 01       	movw	r30, r24
     19a:	80 81       	ld	r24, Z
     19c:	91 81       	ldd	r25, Z+1	; 0x01
     19e:	08 95       	ret

000001a0 <_ZNK6String6lengthEv>:
     1a0:	fc 01       	movw	r30, r24
     1a2:	84 81       	ldd	r24, Z+4	; 0x04
     1a4:	95 81       	ldd	r25, Z+5	; 0x05
     1a6:	08 95       	ret

000001a8 <_ZN14HardwareSerial16_rx_complete_irqEv>:
     1a8:	fc 01       	movw	r30, r24
     1aa:	a0 89       	ldd	r26, Z+16	; 0x10
     1ac:	b1 89       	ldd	r27, Z+17	; 0x11
     1ae:	8c 91       	ld	r24, X
     1b0:	a6 89       	ldd	r26, Z+22	; 0x16
     1b2:	b7 89       	ldd	r27, Z+23	; 0x17
     1b4:	82 fd       	sbrc	r24, 2
     1b6:	0f c0       	rjmp	.+30     	; 0x1d6 <_ZN14HardwareSerial16_rx_complete_irqEv+0x2e>
     1b8:	9c 91       	ld	r25, X
     1ba:	81 8d       	ldd	r24, Z+25	; 0x19
     1bc:	8f 5f       	subi	r24, 0xFF	; 255
     1be:	8f 73       	andi	r24, 0x3F	; 63
     1c0:	22 8d       	ldd	r18, Z+26	; 0x1a
     1c2:	28 17       	cp	r18, r24
     1c4:	49 f0       	breq	.+18     	; 0x1d8 <_ZN14HardwareSerial16_rx_complete_irqEv+0x30>
     1c6:	21 8d       	ldd	r18, Z+25	; 0x19
     1c8:	df 01       	movw	r26, r30
     1ca:	a2 0f       	add	r26, r18
     1cc:	b1 1d       	adc	r27, r1
     1ce:	5d 96       	adiw	r26, 0x1d	; 29
     1d0:	9c 93       	st	X, r25
     1d2:	81 8f       	std	Z+25, r24	; 0x19
     1d4:	08 95       	ret
     1d6:	8c 91       	ld	r24, X
     1d8:	08 95       	ret

000001da <_ZN5PrintC2Ev>:
     1da:	21 e5       	ldi	r18, 0x51	; 81
     1dc:	31 e0       	ldi	r19, 0x01	; 1
     1de:	fc 01       	movw	r30, r24
     1e0:	31 83       	std	Z+1, r19	; 0x01
     1e2:	20 83       	st	Z, r18
     1e4:	13 82       	std	Z+3, r1	; 0x03
     1e6:	12 82       	std	Z+2, r1	; 0x02
     1e8:	08 95       	ret

000001ea <_ZN6StreamC2Ev>:
     1ea:	cf 93       	push	r28
     1ec:	df 93       	push	r29
     1ee:	ec 01       	movw	r28, r24
     1f0:	0e 94 ed 00 	call	0x1da	; 0x1da <_ZN5PrintC2Ev>
     1f4:	89 e5       	ldi	r24, 0x59	; 89
     1f6:	91 e0       	ldi	r25, 0x01	; 1
     1f8:	99 83       	std	Y+1, r25	; 0x01
     1fa:	88 83       	st	Y, r24
     1fc:	88 ee       	ldi	r24, 0xE8	; 232
     1fe:	93 e0       	ldi	r25, 0x03	; 3
     200:	a0 e0       	ldi	r26, 0x00	; 0
     202:	b0 e0       	ldi	r27, 0x00	; 0
     204:	8c 83       	std	Y+4, r24	; 0x04
     206:	9d 83       	std	Y+5, r25	; 0x05
     208:	ae 83       	std	Y+6, r26	; 0x06
     20a:	bf 83       	std	Y+7, r27	; 0x07
     20c:	df 91       	pop	r29
     20e:	cf 91       	pop	r28
     210:	08 95       	ret

00000212 <_ZN14HardwareSerialC2EPVhS1_S1_S1_S1_S1_>:
     212:	6f 92       	push	r6
     214:	7f 92       	push	r7
     216:	8f 92       	push	r8
     218:	9f 92       	push	r9
     21a:	af 92       	push	r10
     21c:	bf 92       	push	r11
     21e:	cf 92       	push	r12
     220:	df 92       	push	r13
     222:	ef 92       	push	r14
     224:	ff 92       	push	r15
     226:	0f 93       	push	r16
     228:	1f 93       	push	r17
     22a:	cf 93       	push	r28
     22c:	df 93       	push	r29
     22e:	ec 01       	movw	r28, r24
     230:	4b 01       	movw	r8, r22
     232:	3a 01       	movw	r6, r20
     234:	59 01       	movw	r10, r18
     236:	0e 94 f5 00 	call	0x1ea	; 0x1ea <_ZN6StreamC2Ev>
     23a:	89 e6       	ldi	r24, 0x69	; 105
     23c:	91 e0       	ldi	r25, 0x01	; 1
     23e:	99 83       	std	Y+1, r25	; 0x01
     240:	88 83       	st	Y, r24
     242:	9d 86       	std	Y+13, r9	; 0x0d
     244:	8c 86       	std	Y+12, r8	; 0x0c
     246:	7f 86       	std	Y+15, r7	; 0x0f
     248:	6e 86       	std	Y+14, r6	; 0x0e
     24a:	b9 8a       	std	Y+17, r11	; 0x11
     24c:	a8 8a       	std	Y+16, r10	; 0x10
     24e:	1b 8b       	std	Y+19, r17	; 0x13
     250:	0a 8b       	std	Y+18, r16	; 0x12
     252:	fd 8a       	std	Y+21, r15	; 0x15
     254:	ec 8a       	std	Y+20, r14	; 0x14
     256:	df 8a       	std	Y+23, r13	; 0x17
     258:	ce 8a       	std	Y+22, r12	; 0x16
     25a:	19 8e       	std	Y+25, r1	; 0x19
     25c:	1a 8e       	std	Y+26, r1	; 0x1a
     25e:	1b 8e       	std	Y+27, r1	; 0x1b
     260:	1c 8e       	std	Y+28, r1	; 0x1c
     262:	df 91       	pop	r29
     264:	cf 91       	pop	r28
     266:	1f 91       	pop	r17
     268:	0f 91       	pop	r16
     26a:	ff 90       	pop	r15
     26c:	ef 90       	pop	r14
     26e:	df 90       	pop	r13
     270:	cf 90       	pop	r12
     272:	bf 90       	pop	r11
     274:	af 90       	pop	r10
     276:	9f 90       	pop	r9
     278:	8f 90       	pop	r8
     27a:	7f 90       	pop	r7
     27c:	6f 90       	pop	r6
     27e:	08 95       	ret

00000280 <_ZN14HardwareSerial4readEv>:
     280:	fc 01       	movw	r30, r24
     282:	91 8d       	ldd	r25, Z+25	; 0x19
     284:	82 8d       	ldd	r24, Z+26	; 0x1a
     286:	98 17       	cp	r25, r24
     288:	61 f0       	breq	.+24     	; 0x2a2 <_ZN14HardwareSerial4readEv+0x22>
     28a:	82 8d       	ldd	r24, Z+26	; 0x1a
     28c:	df 01       	movw	r26, r30
     28e:	a8 0f       	add	r26, r24
     290:	b1 1d       	adc	r27, r1
     292:	5d 96       	adiw	r26, 0x1d	; 29
     294:	8c 91       	ld	r24, X
     296:	92 8d       	ldd	r25, Z+26	; 0x1a
     298:	9f 5f       	subi	r25, 0xFF	; 255
     29a:	9f 73       	andi	r25, 0x3F	; 63
     29c:	92 8f       	std	Z+26, r25	; 0x1a
     29e:	90 e0       	ldi	r25, 0x00	; 0
     2a0:	08 95       	ret
     2a2:	8f ef       	ldi	r24, 0xFF	; 255
     2a4:	9f ef       	ldi	r25, 0xFF	; 255
     2a6:	08 95       	ret

000002a8 <_ZN14HardwareSerial4peekEv>:
     2a8:	fc 01       	movw	r30, r24
     2aa:	91 8d       	ldd	r25, Z+25	; 0x19
     2ac:	82 8d       	ldd	r24, Z+26	; 0x1a
     2ae:	98 17       	cp	r25, r24
     2b0:	31 f0       	breq	.+12     	; 0x2be <_ZN14HardwareSerial4peekEv+0x16>
     2b2:	82 8d       	ldd	r24, Z+26	; 0x1a
     2b4:	e8 0f       	add	r30, r24
     2b6:	f1 1d       	adc	r31, r1
     2b8:	85 8d       	ldd	r24, Z+29	; 0x1d
     2ba:	90 e0       	ldi	r25, 0x00	; 0
     2bc:	08 95       	ret
     2be:	8f ef       	ldi	r24, 0xFF	; 255
     2c0:	9f ef       	ldi	r25, 0xFF	; 255
     2c2:	08 95       	ret

000002c4 <_ZN14HardwareSerial9availableEv>:
     2c4:	fc 01       	movw	r30, r24
     2c6:	91 8d       	ldd	r25, Z+25	; 0x19
     2c8:	22 8d       	ldd	r18, Z+26	; 0x1a
     2ca:	89 2f       	mov	r24, r25
     2cc:	90 e0       	ldi	r25, 0x00	; 0
     2ce:	80 5c       	subi	r24, 0xC0	; 192
     2d0:	9f 4f       	sbci	r25, 0xFF	; 255
     2d2:	82 1b       	sub	r24, r18
     2d4:	91 09       	sbc	r25, r1
     2d6:	8f 73       	andi	r24, 0x3F	; 63
     2d8:	99 27       	eor	r25, r25
     2da:	08 95       	ret

000002dc <_Z17Serial0_availablev>:
     2dc:	87 e3       	ldi	r24, 0x37	; 55
     2de:	96 e0       	ldi	r25, 0x06	; 6
     2e0:	0e 94 62 01 	call	0x2c4	; 0x2c4 <_ZN14HardwareSerial9availableEv>
     2e4:	21 e0       	ldi	r18, 0x01	; 1
     2e6:	89 2b       	or	r24, r25
     2e8:	09 f4       	brne	.+2      	; 0x2ec <_Z17Serial0_availablev+0x10>
     2ea:	20 e0       	ldi	r18, 0x00	; 0
     2ec:	82 2f       	mov	r24, r18
     2ee:	08 95       	ret

000002f0 <_Z14serialEventRunv>:
     2f0:	80 e0       	ldi	r24, 0x00	; 0
     2f2:	90 e0       	ldi	r25, 0x00	; 0
     2f4:	89 2b       	or	r24, r25
     2f6:	29 f0       	breq	.+10     	; 0x302 <_Z14serialEventRunv+0x12>
     2f8:	0e 94 6e 01 	call	0x2dc	; 0x2dc <_Z17Serial0_availablev>
     2fc:	81 11       	cpse	r24, r1
     2fe:	0c 94 00 00 	jmp	0	; 0x0 <__vectors>
     302:	08 95       	ret

00000304 <_Z9functionDv>:
     304:	ed b7       	in	r30, 0x3d	; 61
     306:	fe b7       	in	r31, 0x3e	; 62
     308:	ae e6       	ldi	r26, 0x6E	; 110
     30a:	b5 e0       	ldi	r27, 0x05	; 5
     30c:	cf 01       	movw	r24, r30
     30e:	88 53       	subi	r24, 0x38	; 56
     310:	9f 4f       	sbci	r25, 0xFF	; 255
     312:	21 91       	ld	r18, Z+
     314:	2d 93       	st	X+, r18
     316:	e8 17       	cp	r30, r24
     318:	f9 07       	cpc	r31, r25
     31a:	d9 f7       	brne	.-10     	; 0x312 <_Z9functionDv+0xe>
     31c:	08 95       	ret

0000031e <_Z9functionCv>:
     31e:	0c 94 82 01 	jmp	0x304	; 0x304 <_Z9functionDv>

00000322 <_Z9functionBv>:
     322:	0c 94 8f 01 	jmp	0x31e	; 0x31e <_Z9functionCv>

00000326 <_Z9functionAv>:
     326:	0c 94 91 01 	jmp	0x322	; 0x322 <_Z9functionBv>

0000032a <__cxa_pure_virtual>:
     32a:	0e 94 01 0a 	call	0x1402	; 0x1402 <abort>

0000032e <_ZN5Print5writeEPKc>:
     32e:	61 15       	cp	r22, r1
     330:	71 05       	cpc	r23, r1
     332:	79 f0       	breq	.+30     	; 0x352 <_ZN5Print5writeEPKc+0x24>
     334:	fb 01       	movw	r30, r22
     336:	01 90       	ld	r0, Z+
     338:	00 20       	and	r0, r0
     33a:	e9 f7       	brne	.-6      	; 0x336 <_ZN5Print5writeEPKc+0x8>
     33c:	31 97       	sbiw	r30, 0x01	; 1
     33e:	af 01       	movw	r20, r30
     340:	46 1b       	sub	r20, r22
     342:	57 0b       	sbc	r21, r23
     344:	dc 01       	movw	r26, r24
     346:	ed 91       	ld	r30, X+
     348:	fc 91       	ld	r31, X
     34a:	02 80       	ldd	r0, Z+2	; 0x02
     34c:	f3 81       	ldd	r31, Z+3	; 0x03
     34e:	e0 2d       	mov	r30, r0
     350:	09 94       	ijmp
     352:	80 e0       	ldi	r24, 0x00	; 0
     354:	90 e0       	ldi	r25, 0x00	; 0
     356:	08 95       	ret

00000358 <__vector_16>:
     358:	1f 92       	push	r1
     35a:	0f 92       	push	r0
     35c:	0f b6       	in	r0, 0x3f	; 63
     35e:	0f 92       	push	r0
     360:	11 24       	eor	r1, r1
     362:	2f 93       	push	r18
     364:	3f 93       	push	r19
     366:	8f 93       	push	r24
     368:	9f 93       	push	r25
     36a:	af 93       	push	r26
     36c:	bf 93       	push	r27
     36e:	80 91 d9 06 	lds	r24, 0x06D9	; 0x8006d9 <timer0_millis>
     372:	90 91 da 06 	lds	r25, 0x06DA	; 0x8006da <timer0_millis+0x1>
     376:	a0 91 db 06 	lds	r26, 0x06DB	; 0x8006db <timer0_millis+0x2>
     37a:	b0 91 dc 06 	lds	r27, 0x06DC	; 0x8006dc <timer0_millis+0x3>
     37e:	30 91 d8 06 	lds	r19, 0x06D8	; 0x8006d8 <timer0_fract>
     382:	23 e0       	ldi	r18, 0x03	; 3
     384:	23 0f       	add	r18, r19
     386:	2d 37       	cpi	r18, 0x7D	; 125
     388:	20 f4       	brcc	.+8      	; 0x392 <__vector_16+0x3a>
     38a:	01 96       	adiw	r24, 0x01	; 1
     38c:	a1 1d       	adc	r26, r1
     38e:	b1 1d       	adc	r27, r1
     390:	05 c0       	rjmp	.+10     	; 0x39c <__vector_16+0x44>
     392:	26 e8       	ldi	r18, 0x86	; 134
     394:	23 0f       	add	r18, r19
     396:	02 96       	adiw	r24, 0x02	; 2
     398:	a1 1d       	adc	r26, r1
     39a:	b1 1d       	adc	r27, r1
     39c:	20 93 d8 06 	sts	0x06D8, r18	; 0x8006d8 <timer0_fract>
     3a0:	80 93 d9 06 	sts	0x06D9, r24	; 0x8006d9 <timer0_millis>
     3a4:	90 93 da 06 	sts	0x06DA, r25	; 0x8006da <timer0_millis+0x1>
     3a8:	a0 93 db 06 	sts	0x06DB, r26	; 0x8006db <timer0_millis+0x2>
     3ac:	b0 93 dc 06 	sts	0x06DC, r27	; 0x8006dc <timer0_millis+0x3>
     3b0:	80 91 d4 06 	lds	r24, 0x06D4	; 0x8006d4 <timer0_overflow_count>
     3b4:	90 91 d5 06 	lds	r25, 0x06D5	; 0x8006d5 <timer0_overflow_count+0x1>
     3b8:	a0 91 d6 06 	lds	r26, 0x06D6	; 0x8006d6 <timer0_overflow_count+0x2>
     3bc:	b0 91 d7 06 	lds	r27, 0x06D7	; 0x8006d7 <timer0_overflow_count+0x3>
     3c0:	01 96       	adiw	r24, 0x01	; 1
     3c2:	a1 1d       	adc	r26, r1
     3c4:	b1 1d       	adc	r27, r1
     3c6:	80 93 d4 06 	sts	0x06D4, r24	; 0x8006d4 <timer0_overflow_count>
     3ca:	90 93 d5 06 	sts	0x06D5, r25	; 0x8006d5 <timer0_overflow_count+0x1>
     3ce:	a0 93 d6 06 	sts	0x06D6, r26	; 0x8006d6 <timer0_overflow_count+0x2>
     3d2:	b0 93 d7 06 	sts	0x06D7, r27	; 0x8006d7 <timer0_overflow_count+0x3>
     3d6:	bf 91       	pop	r27
     3d8:	af 91       	pop	r26
     3da:	9f 91       	pop	r25
     3dc:	8f 91       	pop	r24
     3de:	3f 91       	pop	r19
     3e0:	2f 91       	pop	r18
     3e2:	0f 90       	pop	r0
     3e4:	0f be       	out	0x3f, r0	; 63
     3e6:	0f 90       	pop	r0
     3e8:	1f 90       	pop	r1
     3ea:	18 95       	reti

000003ec <_ZdaPv>:
     3ec:	0c 94 9b 0a 	jmp	0x1536	; 0x1536 <free>

000003f0 <_ZdlPv>:
     3f0:	0c 94 9b 0a 	jmp	0x1536	; 0x1536 <free>

000003f4 <_Znaj>:
     3f4:	0c 94 06 0a 	jmp	0x140c	; 0x140c <malloc>

000003f8 <_Znwj>:
     3f8:	0c 94 06 0a 	jmp	0x140c	; 0x140c <malloc>

000003fc <_Z8setupUSBv>:
     3fc:	08 95       	ret

000003fe <initVariant>:
     3fe:	08 95       	ret

00000400 <atexit>:
     400:	80 e0       	ldi	r24, 0x00	; 0
     402:	90 e0       	ldi	r25, 0x00	; 0
     404:	08 95       	ret

00000406 <__cxa_deleted_virtual>:
     406:	0e 94 01 0a 	call	0x1402	; 0x1402 <abort>

0000040a <_ZN5Print11printNumberEmh>:
     40a:	4f 92       	push	r4
     40c:	5f 92       	push	r5
     40e:	6f 92       	push	r6
     410:	7f 92       	push	r7
     412:	ef 92       	push	r14
     414:	ff 92       	push	r15
     416:	0f 93       	push	r16
     418:	1f 93       	push	r17
     41a:	cf 93       	push	r28
     41c:	df 93       	push	r29
     41e:	cd b7       	in	r28, 0x3d	; 61
     420:	de b7       	in	r29, 0x3e	; 62
     422:	a1 97       	sbiw	r28, 0x21	; 33
     424:	0f b6       	in	r0, 0x3f	; 63
     426:	f8 94       	cli
     428:	de bf       	out	0x3e, r29	; 62
     42a:	0f be       	out	0x3f, r0	; 63
     42c:	cd bf       	out	0x3d, r28	; 61
     42e:	7c 01       	movw	r14, r24
     430:	fa 01       	movw	r30, r20
     432:	cb 01       	movw	r24, r22
     434:	19 a2       	std	Y+33, r1	; 0x21
     436:	22 30       	cpi	r18, 0x02	; 2
     438:	08 f4       	brcc	.+2      	; 0x43c <_ZN5Print11printNumberEmh+0x32>
     43a:	2a e0       	ldi	r18, 0x0A	; 10
     43c:	8e 01       	movw	r16, r28
     43e:	0f 5d       	subi	r16, 0xDF	; 223
     440:	1f 4f       	sbci	r17, 0xFF	; 255
     442:	42 2e       	mov	r4, r18
     444:	51 2c       	mov	r5, r1
     446:	61 2c       	mov	r6, r1
     448:	71 2c       	mov	r7, r1
     44a:	bf 01       	movw	r22, r30
     44c:	a3 01       	movw	r20, r6
     44e:	92 01       	movw	r18, r4
     450:	0e 94 9d 07 	call	0xf3a	; 0xf3a <__udivmodsi4>
     454:	f9 01       	movw	r30, r18
     456:	ca 01       	movw	r24, r20
     458:	01 50       	subi	r16, 0x01	; 1
     45a:	11 09       	sbc	r17, r1
     45c:	6a 30       	cpi	r22, 0x0A	; 10
     45e:	14 f4       	brge	.+4      	; 0x464 <_ZN5Print11printNumberEmh+0x5a>
     460:	60 5d       	subi	r22, 0xD0	; 208
     462:	01 c0       	rjmp	.+2      	; 0x466 <_ZN5Print11printNumberEmh+0x5c>
     464:	69 5c       	subi	r22, 0xC9	; 201
     466:	d8 01       	movw	r26, r16
     468:	6c 93       	st	X, r22
     46a:	23 2b       	or	r18, r19
     46c:	24 2b       	or	r18, r20
     46e:	25 2b       	or	r18, r21
     470:	61 f7       	brne	.-40     	; 0x44a <_ZN5Print11printNumberEmh+0x40>
     472:	b8 01       	movw	r22, r16
     474:	c7 01       	movw	r24, r14
     476:	0e 94 97 01 	call	0x32e	; 0x32e <_ZN5Print5writeEPKc>
     47a:	a1 96       	adiw	r28, 0x21	; 33
     47c:	0f b6       	in	r0, 0x3f	; 63
     47e:	f8 94       	cli
     480:	de bf       	out	0x3e, r29	; 62
     482:	0f be       	out	0x3f, r0	; 63
     484:	cd bf       	out	0x3d, r28	; 61
     486:	df 91       	pop	r29
     488:	cf 91       	pop	r28
     48a:	1f 91       	pop	r17
     48c:	0f 91       	pop	r16
     48e:	ff 90       	pop	r15
     490:	ef 90       	pop	r14
     492:	7f 90       	pop	r7
     494:	6f 90       	pop	r6
     496:	5f 90       	pop	r5
     498:	4f 90       	pop	r4
     49a:	08 95       	ret

0000049c <_ZN5Print7printlnEv>:
     49c:	65 e7       	ldi	r22, 0x75	; 117
     49e:	71 e0       	ldi	r23, 0x01	; 1
     4a0:	0c 94 97 01 	jmp	0x32e	; 0x32e <_ZN5Print5writeEPKc>

000004a4 <_ZN5Print5printERK9Printable>:
     4a4:	db 01       	movw	r26, r22
     4a6:	ed 91       	ld	r30, X+
     4a8:	fc 91       	ld	r31, X
     4aa:	11 97       	sbiw	r26, 0x01	; 1
     4ac:	01 90       	ld	r0, Z+
     4ae:	f0 81       	ld	r31, Z
     4b0:	e0 2d       	mov	r30, r0
     4b2:	bc 01       	movw	r22, r24
     4b4:	cd 01       	movw	r24, r26
     4b6:	09 94       	ijmp

000004b8 <_ZN5Print7printlnERK9Printable>:
     4b8:	0f 93       	push	r16
     4ba:	1f 93       	push	r17
     4bc:	cf 93       	push	r28
     4be:	df 93       	push	r29
     4c0:	ec 01       	movw	r28, r24
     4c2:	0e 94 52 02 	call	0x4a4	; 0x4a4 <_ZN5Print5printERK9Printable>
     4c6:	8c 01       	movw	r16, r24
     4c8:	ce 01       	movw	r24, r28
     4ca:	0e 94 4e 02 	call	0x49c	; 0x49c <_ZN5Print7printlnEv>
     4ce:	80 0f       	add	r24, r16
     4d0:	91 1f       	adc	r25, r17
     4d2:	df 91       	pop	r29
     4d4:	cf 91       	pop	r28
     4d6:	1f 91       	pop	r17
     4d8:	0f 91       	pop	r16
     4da:	08 95       	ret

000004dc <_ZN5Print5printEmi>:
     4dc:	21 15       	cp	r18, r1
     4de:	31 05       	cpc	r19, r1
     4e0:	41 f4       	brne	.+16     	; 0x4f2 <_ZN5Print5printEmi+0x16>
     4e2:	dc 01       	movw	r26, r24
     4e4:	ed 91       	ld	r30, X+
     4e6:	fc 91       	ld	r31, X
     4e8:	01 90       	ld	r0, Z+
     4ea:	f0 81       	ld	r31, Z
     4ec:	e0 2d       	mov	r30, r0
     4ee:	64 2f       	mov	r22, r20
     4f0:	09 94       	ijmp
     4f2:	0c 94 05 02 	jmp	0x40a	; 0x40a <_ZN5Print11printNumberEmh>

000004f6 <_ZN5Print7printlnEmi>:
     4f6:	0f 93       	push	r16
     4f8:	1f 93       	push	r17
     4fa:	cf 93       	push	r28
     4fc:	df 93       	push	r29
     4fe:	ec 01       	movw	r28, r24
     500:	0e 94 6e 02 	call	0x4dc	; 0x4dc <_ZN5Print5printEmi>
     504:	8c 01       	movw	r16, r24
     506:	ce 01       	movw	r24, r28
     508:	0e 94 4e 02 	call	0x49c	; 0x49c <_ZN5Print7printlnEv>
     50c:	80 0f       	add	r24, r16
     50e:	91 1f       	adc	r25, r17
     510:	df 91       	pop	r29
     512:	cf 91       	pop	r28
     514:	1f 91       	pop	r17
     516:	0f 91       	pop	r16
     518:	08 95       	ret

0000051a <_ZN5Print5printEji>:
     51a:	9a 01       	movw	r18, r20
     51c:	ab 01       	movw	r20, r22
     51e:	60 e0       	ldi	r22, 0x00	; 0
     520:	70 e0       	ldi	r23, 0x00	; 0
     522:	0c 94 6e 02 	jmp	0x4dc	; 0x4dc <_ZN5Print5printEmi>

00000526 <_ZN5Print7printlnEji>:
     526:	0f 93       	push	r16
     528:	1f 93       	push	r17
     52a:	cf 93       	push	r28
     52c:	df 93       	push	r29
     52e:	ec 01       	movw	r28, r24
     530:	0e 94 8d 02 	call	0x51a	; 0x51a <_ZN5Print5printEji>
     534:	8c 01       	movw	r16, r24
     536:	ce 01       	movw	r24, r28
     538:	0e 94 4e 02 	call	0x49c	; 0x49c <_ZN5Print7printlnEv>
     53c:	80 0f       	add	r24, r16
     53e:	91 1f       	adc	r25, r17
     540:	df 91       	pop	r29
     542:	cf 91       	pop	r28
     544:	1f 91       	pop	r17
     546:	0f 91       	pop	r16
     548:	08 95       	ret

0000054a <_ZN5Print5printEhi>:
     54a:	9a 01       	movw	r18, r20
     54c:	46 2f       	mov	r20, r22
     54e:	50 e0       	ldi	r21, 0x00	; 0
     550:	60 e0       	ldi	r22, 0x00	; 0
     552:	70 e0       	ldi	r23, 0x00	; 0
     554:	0c 94 6e 02 	jmp	0x4dc	; 0x4dc <_ZN5Print5printEmi>

00000558 <_ZN5Print7printlnEhi>:
     558:	0f 93       	push	r16
     55a:	1f 93       	push	r17
     55c:	cf 93       	push	r28
     55e:	df 93       	push	r29
     560:	ec 01       	movw	r28, r24
     562:	0e 94 a5 02 	call	0x54a	; 0x54a <_ZN5Print5printEhi>
     566:	8c 01       	movw	r16, r24
     568:	ce 01       	movw	r24, r28
     56a:	0e 94 4e 02 	call	0x49c	; 0x49c <_ZN5Print7printlnEv>
     56e:	80 0f       	add	r24, r16
     570:	91 1f       	adc	r25, r17
     572:	df 91       	pop	r29
     574:	cf 91       	pop	r28
     576:	1f 91       	pop	r17
     578:	0f 91       	pop	r16
     57a:	08 95       	ret

0000057c <_ZN5Print5printEc>:
     57c:	dc 01       	movw	r26, r24
     57e:	ed 91       	ld	r30, X+
     580:	fc 91       	ld	r31, X
     582:	01 90       	ld	r0, Z+
     584:	f0 81       	ld	r31, Z
     586:	e0 2d       	mov	r30, r0
     588:	09 94       	ijmp

0000058a <_ZN5Print7printlnEc>:
     58a:	0f 93       	push	r16
     58c:	1f 93       	push	r17
     58e:	cf 93       	push	r28
     590:	df 93       	push	r29
     592:	ec 01       	movw	r28, r24
     594:	0e 94 be 02 	call	0x57c	; 0x57c <_ZN5Print5printEc>
     598:	8c 01       	movw	r16, r24
     59a:	ce 01       	movw	r24, r28
     59c:	0e 94 4e 02 	call	0x49c	; 0x49c <_ZN5Print7printlnEv>
     5a0:	80 0f       	add	r24, r16
     5a2:	91 1f       	adc	r25, r17
     5a4:	df 91       	pop	r29
     5a6:	cf 91       	pop	r28
     5a8:	1f 91       	pop	r17
     5aa:	0f 91       	pop	r16
     5ac:	08 95       	ret

000005ae <_ZN5Print5printEli>:
     5ae:	cf 92       	push	r12
     5b0:	df 92       	push	r13
     5b2:	ef 92       	push	r14
     5b4:	ff 92       	push	r15
     5b6:	0f 93       	push	r16
     5b8:	1f 93       	push	r17
     5ba:	cf 93       	push	r28
     5bc:	df 93       	push	r29
     5be:	ec 01       	movw	r28, r24
     5c0:	6a 01       	movw	r12, r20
     5c2:	7b 01       	movw	r14, r22
     5c4:	21 15       	cp	r18, r1
     5c6:	31 05       	cpc	r19, r1
     5c8:	79 f4       	brne	.+30     	; 0x5e8 <_ZN5Print5printEli+0x3a>
     5ca:	e8 81       	ld	r30, Y
     5cc:	f9 81       	ldd	r31, Y+1	; 0x01
     5ce:	01 90       	ld	r0, Z+
     5d0:	f0 81       	ld	r31, Z
     5d2:	e0 2d       	mov	r30, r0
     5d4:	64 2f       	mov	r22, r20
     5d6:	df 91       	pop	r29
     5d8:	cf 91       	pop	r28
     5da:	1f 91       	pop	r17
     5dc:	0f 91       	pop	r16
     5de:	ff 90       	pop	r15
     5e0:	ef 90       	pop	r14
     5e2:	df 90       	pop	r13
     5e4:	cf 90       	pop	r12
     5e6:	09 94       	ijmp
     5e8:	2a 30       	cpi	r18, 0x0A	; 10
     5ea:	31 05       	cpc	r19, r1
     5ec:	e9 f4       	brne	.+58     	; 0x628 <_ZN5Print5printEli+0x7a>
     5ee:	77 ff       	sbrs	r23, 7
     5f0:	1a c0       	rjmp	.+52     	; 0x626 <_ZN5Print5printEli+0x78>
     5f2:	6d e2       	ldi	r22, 0x2D	; 45
     5f4:	0e 94 be 02 	call	0x57c	; 0x57c <_ZN5Print5printEc>
     5f8:	8c 01       	movw	r16, r24
     5fa:	44 27       	eor	r20, r20
     5fc:	55 27       	eor	r21, r21
     5fe:	ba 01       	movw	r22, r20
     600:	4c 19       	sub	r20, r12
     602:	5d 09       	sbc	r21, r13
     604:	6e 09       	sbc	r22, r14
     606:	7f 09       	sbc	r23, r15
     608:	2a e0       	ldi	r18, 0x0A	; 10
     60a:	ce 01       	movw	r24, r28
     60c:	0e 94 05 02 	call	0x40a	; 0x40a <_ZN5Print11printNumberEmh>
     610:	80 0f       	add	r24, r16
     612:	91 1f       	adc	r25, r17
     614:	df 91       	pop	r29
     616:	cf 91       	pop	r28
     618:	1f 91       	pop	r17
     61a:	0f 91       	pop	r16
     61c:	ff 90       	pop	r15
     61e:	ef 90       	pop	r14
     620:	df 90       	pop	r13
     622:	cf 90       	pop	r12
     624:	08 95       	ret
     626:	2a e0       	ldi	r18, 0x0A	; 10
     628:	b7 01       	movw	r22, r14
     62a:	a6 01       	movw	r20, r12
     62c:	ce 01       	movw	r24, r28
     62e:	df 91       	pop	r29
     630:	cf 91       	pop	r28
     632:	1f 91       	pop	r17
     634:	0f 91       	pop	r16
     636:	ff 90       	pop	r15
     638:	ef 90       	pop	r14
     63a:	df 90       	pop	r13
     63c:	cf 90       	pop	r12
     63e:	0c 94 05 02 	jmp	0x40a	; 0x40a <_ZN5Print11printNumberEmh>

00000642 <_ZN5Print7printlnEli>:
     642:	0f 93       	push	r16
     644:	1f 93       	push	r17
     646:	cf 93       	push	r28
     648:	df 93       	push	r29
     64a:	ec 01       	movw	r28, r24
     64c:	0e 94 d7 02 	call	0x5ae	; 0x5ae <_ZN5Print5printEli>
     650:	8c 01       	movw	r16, r24
     652:	ce 01       	movw	r24, r28
     654:	0e 94 4e 02 	call	0x49c	; 0x49c <_ZN5Print7printlnEv>
     658:	80 0f       	add	r24, r16
     65a:	91 1f       	adc	r25, r17
     65c:	df 91       	pop	r29
     65e:	cf 91       	pop	r28
     660:	1f 91       	pop	r17
     662:	0f 91       	pop	r16
     664:	08 95       	ret

00000666 <_ZN5Print5printEii>:
     666:	9a 01       	movw	r18, r20
     668:	ab 01       	movw	r20, r22
     66a:	77 0f       	add	r23, r23
     66c:	66 0b       	sbc	r22, r22
     66e:	77 0b       	sbc	r23, r23
     670:	0c 94 d7 02 	jmp	0x5ae	; 0x5ae <_ZN5Print5printEli>

00000674 <_ZN5Print7printlnEii>:
     674:	0f 93       	push	r16
     676:	1f 93       	push	r17
     678:	cf 93       	push	r28
     67a:	df 93       	push	r29
     67c:	ec 01       	movw	r28, r24
     67e:	0e 94 33 03 	call	0x666	; 0x666 <_ZN5Print5printEii>
     682:	8c 01       	movw	r16, r24
     684:	ce 01       	movw	r24, r28
     686:	0e 94 4e 02 	call	0x49c	; 0x49c <_ZN5Print7printlnEv>
     68a:	80 0f       	add	r24, r16
     68c:	91 1f       	adc	r25, r17
     68e:	df 91       	pop	r29
     690:	cf 91       	pop	r28
     692:	1f 91       	pop	r17
     694:	0f 91       	pop	r16
     696:	08 95       	ret

00000698 <_ZN5Print5printEPKc>:
     698:	0c 94 97 01 	jmp	0x32e	; 0x32e <_ZN5Print5writeEPKc>

0000069c <_ZN5Print10printFloatEdh>:
     69c:	4f 92       	push	r4
     69e:	5f 92       	push	r5
     6a0:	6f 92       	push	r6
     6a2:	7f 92       	push	r7
     6a4:	8f 92       	push	r8
     6a6:	9f 92       	push	r9
     6a8:	af 92       	push	r10
     6aa:	bf 92       	push	r11
     6ac:	cf 92       	push	r12
     6ae:	df 92       	push	r13
     6b0:	ef 92       	push	r14
     6b2:	ff 92       	push	r15
     6b4:	cf 93       	push	r28
     6b6:	df 93       	push	r29
     6b8:	ec 01       	movw	r28, r24
     6ba:	6a 01       	movw	r12, r20
     6bc:	7b 01       	movw	r14, r22
     6be:	b2 2e       	mov	r11, r18
     6c0:	9a 01       	movw	r18, r20
     6c2:	ab 01       	movw	r20, r22
     6c4:	c7 01       	movw	r24, r14
     6c6:	b6 01       	movw	r22, r12
     6c8:	0e 94 fc 09 	call	0x13f8	; 0x13f8 <__unordsf2>
     6cc:	88 23       	and	r24, r24
     6ce:	19 f0       	breq	.+6      	; 0x6d6 <_ZN5Print10printFloatEdh+0x3a>
     6d0:	68 e7       	ldi	r22, 0x78	; 120
     6d2:	71 e0       	ldi	r23, 0x01	; 1
     6d4:	27 c0       	rjmp	.+78     	; 0x724 <_ZN5Print10printFloatEdh+0x88>
     6d6:	26 01       	movw	r4, r12
     6d8:	37 01       	movw	r6, r14
     6da:	e8 94       	clt
     6dc:	77 f8       	bld	r7, 7
     6de:	2f ef       	ldi	r18, 0xFF	; 255
     6e0:	3f ef       	ldi	r19, 0xFF	; 255
     6e2:	4f e7       	ldi	r20, 0x7F	; 127
     6e4:	5f e7       	ldi	r21, 0x7F	; 127
     6e6:	c3 01       	movw	r24, r6
     6e8:	b2 01       	movw	r22, r4
     6ea:	0e 94 fc 09 	call	0x13f8	; 0x13f8 <__unordsf2>
     6ee:	81 11       	cpse	r24, r1
     6f0:	0d c0       	rjmp	.+26     	; 0x70c <_ZN5Print10printFloatEdh+0x70>
     6f2:	2f ef       	ldi	r18, 0xFF	; 255
     6f4:	3f ef       	ldi	r19, 0xFF	; 255
     6f6:	4f e7       	ldi	r20, 0x7F	; 127
     6f8:	5f e7       	ldi	r21, 0x7F	; 127
     6fa:	c3 01       	movw	r24, r6
     6fc:	b2 01       	movw	r22, r4
     6fe:	0e 94 32 08 	call	0x1064	; 0x1064 <__cmpsf2>
     702:	18 16       	cp	r1, r24
     704:	1c f4       	brge	.+6      	; 0x70c <_ZN5Print10printFloatEdh+0x70>
     706:	6c e7       	ldi	r22, 0x7C	; 124
     708:	71 e0       	ldi	r23, 0x01	; 1
     70a:	0c c0       	rjmp	.+24     	; 0x724 <_ZN5Print10printFloatEdh+0x88>
     70c:	2f ef       	ldi	r18, 0xFF	; 255
     70e:	3f ef       	ldi	r19, 0xFF	; 255
     710:	4f e7       	ldi	r20, 0x7F	; 127
     712:	5f e4       	ldi	r21, 0x4F	; 79
     714:	c7 01       	movw	r24, r14
     716:	b6 01       	movw	r22, r12
     718:	0e 94 8a 09 	call	0x1314	; 0x1314 <__gesf2>
     71c:	18 16       	cp	r1, r24
     71e:	9c f4       	brge	.+38     	; 0x746 <_ZN5Print10printFloatEdh+0xaa>
     720:	60 e8       	ldi	r22, 0x80	; 128
     722:	71 e0       	ldi	r23, 0x01	; 1
     724:	ce 01       	movw	r24, r28
     726:	df 91       	pop	r29
     728:	cf 91       	pop	r28
     72a:	ff 90       	pop	r15
     72c:	ef 90       	pop	r14
     72e:	df 90       	pop	r13
     730:	cf 90       	pop	r12
     732:	bf 90       	pop	r11
     734:	af 90       	pop	r10
     736:	9f 90       	pop	r9
     738:	8f 90       	pop	r8
     73a:	7f 90       	pop	r7
     73c:	6f 90       	pop	r6
     73e:	5f 90       	pop	r5
     740:	4f 90       	pop	r4
     742:	0c 94 4c 03 	jmp	0x698	; 0x698 <_ZN5Print5printEPKc>
     746:	2f ef       	ldi	r18, 0xFF	; 255
     748:	3f ef       	ldi	r19, 0xFF	; 255
     74a:	4f e7       	ldi	r20, 0x7F	; 127
     74c:	5f ec       	ldi	r21, 0xCF	; 207
     74e:	c7 01       	movw	r24, r14
     750:	b6 01       	movw	r22, r12
     752:	0e 94 32 08 	call	0x1064	; 0x1064 <__cmpsf2>
     756:	87 fd       	sbrc	r24, 7
     758:	e3 cf       	rjmp	.-58     	; 0x720 <_ZN5Print10printFloatEdh+0x84>
     75a:	20 e0       	ldi	r18, 0x00	; 0
     75c:	30 e0       	ldi	r19, 0x00	; 0
     75e:	a9 01       	movw	r20, r18
     760:	c7 01       	movw	r24, r14
     762:	b6 01       	movw	r22, r12
     764:	0e 94 32 08 	call	0x1064	; 0x1064 <__cmpsf2>
     768:	87 ff       	sbrs	r24, 7
     76a:	0a c0       	rjmp	.+20     	; 0x780 <_ZN5Print10printFloatEdh+0xe4>
     76c:	6d e2       	ldi	r22, 0x2D	; 45
     76e:	ce 01       	movw	r24, r28
     770:	0e 94 be 02 	call	0x57c	; 0x57c <_ZN5Print5printEc>
     774:	4c 01       	movw	r8, r24
     776:	f7 fa       	bst	r15, 7
     778:	f0 94       	com	r15
     77a:	f7 f8       	bld	r15, 7
     77c:	f0 94       	com	r15
     77e:	02 c0       	rjmp	.+4      	; 0x784 <_ZN5Print10printFloatEdh+0xe8>
     780:	81 2c       	mov	r8, r1
     782:	91 2c       	mov	r9, r1
     784:	a1 2c       	mov	r10, r1
     786:	60 e0       	ldi	r22, 0x00	; 0
     788:	70 e0       	ldi	r23, 0x00	; 0
     78a:	80 e0       	ldi	r24, 0x00	; 0
     78c:	9f e3       	ldi	r25, 0x3F	; 63
     78e:	ab 14       	cp	r10, r11
     790:	41 f0       	breq	.+16     	; 0x7a2 <_ZN5Print10printFloatEdh+0x106>
     792:	20 e0       	ldi	r18, 0x00	; 0
     794:	30 e0       	ldi	r19, 0x00	; 0
     796:	40 e2       	ldi	r20, 0x20	; 32
     798:	51 e4       	ldi	r21, 0x41	; 65
     79a:	0e 94 37 08 	call	0x106e	; 0x106e <__divsf3>
     79e:	a3 94       	inc	r10
     7a0:	f6 cf       	rjmp	.-20     	; 0x78e <_ZN5Print10printFloatEdh+0xf2>
     7a2:	9b 01       	movw	r18, r22
     7a4:	ac 01       	movw	r20, r24
     7a6:	c7 01       	movw	r24, r14
     7a8:	b6 01       	movw	r22, r12
     7aa:	0e 94 c6 07 	call	0xf8c	; 0xf8c <__addsf3>
     7ae:	2b 01       	movw	r4, r22
     7b0:	3c 01       	movw	r6, r24
     7b2:	0e 94 a9 08 	call	0x1152	; 0x1152 <__fixunssfsi>
     7b6:	6b 01       	movw	r12, r22
     7b8:	7c 01       	movw	r14, r24
     7ba:	0e 94 d8 08 	call	0x11b0	; 0x11b0 <__floatunsisf>
     7be:	9b 01       	movw	r18, r22
     7c0:	ac 01       	movw	r20, r24
     7c2:	c3 01       	movw	r24, r6
     7c4:	b2 01       	movw	r22, r4
     7c6:	0e 94 c5 07 	call	0xf8a	; 0xf8a <__subsf3>
     7ca:	2b 01       	movw	r4, r22
     7cc:	3c 01       	movw	r6, r24
     7ce:	2a e0       	ldi	r18, 0x0A	; 10
     7d0:	30 e0       	ldi	r19, 0x00	; 0
     7d2:	b7 01       	movw	r22, r14
     7d4:	a6 01       	movw	r20, r12
     7d6:	ce 01       	movw	r24, r28
     7d8:	0e 94 6e 02 	call	0x4dc	; 0x4dc <_ZN5Print5printEmi>
     7dc:	7c 01       	movw	r14, r24
     7de:	e8 0c       	add	r14, r8
     7e0:	f9 1c       	adc	r15, r9
     7e2:	bb 20       	and	r11, r11
     7e4:	39 f0       	breq	.+14     	; 0x7f4 <_ZN5Print10printFloatEdh+0x158>
     7e6:	64 e8       	ldi	r22, 0x84	; 132
     7e8:	71 e0       	ldi	r23, 0x01	; 1
     7ea:	ce 01       	movw	r24, r28
     7ec:	0e 94 4c 03 	call	0x698	; 0x698 <_ZN5Print5printEPKc>
     7f0:	e8 0e       	add	r14, r24
     7f2:	f9 1e       	adc	r15, r25
     7f4:	db 2c       	mov	r13, r11
     7f6:	dd 20       	and	r13, r13
     7f8:	21 f1       	breq	.+72     	; 0x842 <_ZN5Print10printFloatEdh+0x1a6>
     7fa:	20 e0       	ldi	r18, 0x00	; 0
     7fc:	30 e0       	ldi	r19, 0x00	; 0
     7fe:	40 e2       	ldi	r20, 0x20	; 32
     800:	51 e4       	ldi	r21, 0x41	; 65
     802:	c3 01       	movw	r24, r6
     804:	b2 01       	movw	r22, r4
     806:	0e 94 8f 09 	call	0x131e	; 0x131e <__mulsf3>
     80a:	2b 01       	movw	r4, r22
     80c:	3c 01       	movw	r6, r24
     80e:	0e 94 a9 08 	call	0x1152	; 0x1152 <__fixunssfsi>
     812:	4b 01       	movw	r8, r22
     814:	5c 01       	movw	r10, r24
     816:	4a e0       	ldi	r20, 0x0A	; 10
     818:	50 e0       	ldi	r21, 0x00	; 0
     81a:	ce 01       	movw	r24, r28
     81c:	0e 94 8d 02 	call	0x51a	; 0x51a <_ZN5Print5printEji>
     820:	e8 0e       	add	r14, r24
     822:	f9 1e       	adc	r15, r25
     824:	b4 01       	movw	r22, r8
     826:	80 e0       	ldi	r24, 0x00	; 0
     828:	90 e0       	ldi	r25, 0x00	; 0
     82a:	0e 94 d8 08 	call	0x11b0	; 0x11b0 <__floatunsisf>
     82e:	9b 01       	movw	r18, r22
     830:	ac 01       	movw	r20, r24
     832:	c3 01       	movw	r24, r6
     834:	b2 01       	movw	r22, r4
     836:	0e 94 c5 07 	call	0xf8a	; 0xf8a <__subsf3>
     83a:	2b 01       	movw	r4, r22
     83c:	3c 01       	movw	r6, r24
     83e:	da 94       	dec	r13
     840:	da cf       	rjmp	.-76     	; 0x7f6 <_ZN5Print10printFloatEdh+0x15a>
     842:	c7 01       	movw	r24, r14
     844:	df 91       	pop	r29
     846:	cf 91       	pop	r28
     848:	ff 90       	pop	r15
     84a:	ef 90       	pop	r14
     84c:	df 90       	pop	r13
     84e:	cf 90       	pop	r12
     850:	bf 90       	pop	r11
     852:	af 90       	pop	r10
     854:	9f 90       	pop	r9
     856:	8f 90       	pop	r8
     858:	7f 90       	pop	r7
     85a:	6f 90       	pop	r6
     85c:	5f 90       	pop	r5
     85e:	4f 90       	pop	r4
     860:	08 95       	ret

00000862 <_ZN5Print5printEdi>:
     862:	0c 94 4e 03 	jmp	0x69c	; 0x69c <_ZN5Print10printFloatEdh>

00000866 <_ZN5Print7printlnEdi>:
     866:	0f 93       	push	r16
     868:	1f 93       	push	r17
     86a:	cf 93       	push	r28
     86c:	df 93       	push	r29
     86e:	ec 01       	movw	r28, r24
     870:	0e 94 31 04 	call	0x862	; 0x862 <_ZN5Print5printEdi>
     874:	8c 01       	movw	r16, r24
     876:	ce 01       	movw	r24, r28
     878:	0e 94 4e 02 	call	0x49c	; 0x49c <_ZN5Print7printlnEv>
     87c:	80 0f       	add	r24, r16
     87e:	91 1f       	adc	r25, r17
     880:	df 91       	pop	r29
     882:	cf 91       	pop	r28
     884:	1f 91       	pop	r17
     886:	0f 91       	pop	r16
     888:	08 95       	ret

0000088a <_ZN5Print7printlnEPKc>:
     88a:	0f 93       	push	r16
     88c:	1f 93       	push	r17
     88e:	cf 93       	push	r28
     890:	df 93       	push	r29
     892:	ec 01       	movw	r28, r24
     894:	0e 94 4c 03 	call	0x698	; 0x698 <_ZN5Print5printEPKc>
     898:	8c 01       	movw	r16, r24
     89a:	ce 01       	movw	r24, r28
     89c:	0e 94 4e 02 	call	0x49c	; 0x49c <_ZN5Print7printlnEv>
     8a0:	80 0f       	add	r24, r16
     8a2:	91 1f       	adc	r25, r17
     8a4:	df 91       	pop	r29
     8a6:	cf 91       	pop	r28
     8a8:	1f 91       	pop	r17
     8aa:	0f 91       	pop	r16
     8ac:	08 95       	ret

000008ae <_ZN5Print5printERK6String>:
     8ae:	ef 92       	push	r14
     8b0:	ff 92       	push	r15
     8b2:	0f 93       	push	r16
     8b4:	1f 93       	push	r17
     8b6:	cf 93       	push	r28
     8b8:	df 93       	push	r29
     8ba:	8c 01       	movw	r16, r24
     8bc:	eb 01       	movw	r28, r22
     8be:	cb 01       	movw	r24, r22
     8c0:	0e 94 d0 00 	call	0x1a0	; 0x1a0 <_ZNK6String6lengthEv>
     8c4:	7c 01       	movw	r14, r24
     8c6:	ce 01       	movw	r24, r28
     8c8:	0e 94 cc 00 	call	0x198	; 0x198 <_ZNK6String5c_strEv>
     8cc:	bc 01       	movw	r22, r24
     8ce:	a7 01       	movw	r20, r14
     8d0:	c8 01       	movw	r24, r16
     8d2:	df 91       	pop	r29
     8d4:	cf 91       	pop	r28
     8d6:	1f 91       	pop	r17
     8d8:	0f 91       	pop	r16
     8da:	ff 90       	pop	r15
     8dc:	ef 90       	pop	r14
     8de:	0c 94 c5 00 	jmp	0x18a	; 0x18a <_ZN5Print5writeEPKcj>

000008e2 <_ZN5Print7printlnERK6String>:
     8e2:	0f 93       	push	r16
     8e4:	1f 93       	push	r17
     8e6:	cf 93       	push	r28
     8e8:	df 93       	push	r29
     8ea:	ec 01       	movw	r28, r24
     8ec:	0e 94 57 04 	call	0x8ae	; 0x8ae <_ZN5Print5printERK6String>
     8f0:	8c 01       	movw	r16, r24
     8f2:	ce 01       	movw	r24, r28
     8f4:	0e 94 4e 02 	call	0x49c	; 0x49c <_ZN5Print7printlnEv>
     8f8:	80 0f       	add	r24, r16
     8fa:	91 1f       	adc	r25, r17
     8fc:	df 91       	pop	r29
     8fe:	cf 91       	pop	r28
     900:	1f 91       	pop	r17
     902:	0f 91       	pop	r16
     904:	08 95       	ret

00000906 <_ZN5Print5printEPK19__FlashStringHelper>:
     906:	ef 92       	push	r14
     908:	ff 92       	push	r15
     90a:	0f 93       	push	r16
     90c:	1f 93       	push	r17
     90e:	cf 93       	push	r28
     910:	df 93       	push	r29
     912:	8c 01       	movw	r16, r24
     914:	7b 01       	movw	r14, r22
     916:	c0 e0       	ldi	r28, 0x00	; 0
     918:	d0 e0       	ldi	r29, 0x00	; 0
     91a:	f7 01       	movw	r30, r14
     91c:	ec 0f       	add	r30, r28
     91e:	fd 1f       	adc	r31, r29
     920:	64 91       	lpm	r22, Z
     922:	66 23       	and	r22, r22
     924:	61 f0       	breq	.+24     	; 0x93e <_ZN5Print5printEPK19__FlashStringHelper+0x38>
     926:	d8 01       	movw	r26, r16
     928:	ed 91       	ld	r30, X+
     92a:	fc 91       	ld	r31, X
     92c:	01 90       	ld	r0, Z+
     92e:	f0 81       	ld	r31, Z
     930:	e0 2d       	mov	r30, r0
     932:	c8 01       	movw	r24, r16
     934:	09 95       	icall
     936:	89 2b       	or	r24, r25
     938:	11 f0       	breq	.+4      	; 0x93e <_ZN5Print5printEPK19__FlashStringHelper+0x38>
     93a:	21 96       	adiw	r28, 0x01	; 1
     93c:	ee cf       	rjmp	.-36     	; 0x91a <_ZN5Print5printEPK19__FlashStringHelper+0x14>
     93e:	ce 01       	movw	r24, r28
     940:	df 91       	pop	r29
     942:	cf 91       	pop	r28
     944:	1f 91       	pop	r17
     946:	0f 91       	pop	r16
     948:	ff 90       	pop	r15
     94a:	ef 90       	pop	r14
     94c:	08 95       	ret

0000094e <_ZN5Print7printlnEPK19__FlashStringHelper>:
     94e:	0f 93       	push	r16
     950:	1f 93       	push	r17
     952:	cf 93       	push	r28
     954:	df 93       	push	r29
     956:	ec 01       	movw	r28, r24
     958:	0e 94 83 04 	call	0x906	; 0x906 <_ZN5Print5printEPK19__FlashStringHelper>
     95c:	8c 01       	movw	r16, r24
     95e:	ce 01       	movw	r24, r28
     960:	0e 94 4e 02 	call	0x49c	; 0x49c <_ZN5Print7printlnEv>
     964:	80 0f       	add	r24, r16
     966:	91 1f       	adc	r25, r17
     968:	df 91       	pop	r29
     96a:	cf 91       	pop	r28
     96c:	1f 91       	pop	r17
     96e:	0f 91       	pop	r16
     970:	08 95       	ret

00000972 <_GLOBAL__sub_I___vector_18>:
     972:	6f ef       	ldi	r22, 0xFF	; 255
     974:	7f ef       	ldi	r23, 0xFF	; 255
     976:	81 e0       	ldi	r24, 0x01	; 1
     978:	90 e0       	ldi	r25, 0x00	; 0
     97a:	0c 94 bf 04 	jmp	0x97e	; 0x97e <_Z41__static_initialization_and_destruction_0ii>

0000097e <_Z41__static_initialization_and_destruction_0ii>:
     97e:	cf 92       	push	r12
     980:	df 92       	push	r13
     982:	ef 92       	push	r14
     984:	ff 92       	push	r15
     986:	0f 93       	push	r16
     988:	1f 93       	push	r17
     98a:	01 97       	sbiw	r24, 0x01	; 1
     98c:	a9 f4       	brne	.+42     	; 0x9b8 <_Z41__static_initialization_and_destruction_0ii+0x3a>
     98e:	6f 3f       	cpi	r22, 0xFF	; 255
     990:	7f 4f       	sbci	r23, 0xFF	; 255
     992:	91 f4       	brne	.+36     	; 0x9b8 <_Z41__static_initialization_and_destruction_0ii+0x3a>
     994:	86 ec       	ldi	r24, 0xC6	; 198
     996:	c8 2e       	mov	r12, r24
     998:	d1 2c       	mov	r13, r1
     99a:	92 ec       	ldi	r25, 0xC2	; 194
     99c:	e9 2e       	mov	r14, r25
     99e:	f1 2c       	mov	r15, r1
     9a0:	01 ec       	ldi	r16, 0xC1	; 193
     9a2:	10 e0       	ldi	r17, 0x00	; 0
     9a4:	20 ec       	ldi	r18, 0xC0	; 192
     9a6:	30 e0       	ldi	r19, 0x00	; 0
     9a8:	44 ec       	ldi	r20, 0xC4	; 196
     9aa:	50 e0       	ldi	r21, 0x00	; 0
     9ac:	65 ec       	ldi	r22, 0xC5	; 197
     9ae:	70 e0       	ldi	r23, 0x00	; 0
     9b0:	87 e3       	ldi	r24, 0x37	; 55
     9b2:	96 e0       	ldi	r25, 0x06	; 6
     9b4:	0e 94 09 01 	call	0x212	; 0x212 <_ZN14HardwareSerialC2EPVhS1_S1_S1_S1_S1_>
     9b8:	1f 91       	pop	r17
     9ba:	0f 91       	pop	r16
     9bc:	ff 90       	pop	r15
     9be:	ef 90       	pop	r14
     9c0:	df 90       	pop	r13
     9c2:	cf 90       	pop	r12
     9c4:	08 95       	ret

000009c6 <__vector_18>:
     9c6:	1f 92       	push	r1
     9c8:	0f 92       	push	r0
     9ca:	0f b6       	in	r0, 0x3f	; 63
     9cc:	0f 92       	push	r0
     9ce:	11 24       	eor	r1, r1
     9d0:	2f 93       	push	r18
     9d2:	3f 93       	push	r19
     9d4:	4f 93       	push	r20
     9d6:	5f 93       	push	r21
     9d8:	6f 93       	push	r22
     9da:	7f 93       	push	r23
     9dc:	8f 93       	push	r24
     9de:	9f 93       	push	r25
     9e0:	af 93       	push	r26
     9e2:	bf 93       	push	r27
     9e4:	ef 93       	push	r30
     9e6:	ff 93       	push	r31
     9e8:	87 e3       	ldi	r24, 0x37	; 55
     9ea:	96 e0       	ldi	r25, 0x06	; 6
     9ec:	0e 94 d4 00 	call	0x1a8	; 0x1a8 <_ZN14HardwareSerial16_rx_complete_irqEv>
     9f0:	ff 91       	pop	r31
     9f2:	ef 91       	pop	r30
     9f4:	bf 91       	pop	r27
     9f6:	af 91       	pop	r26
     9f8:	9f 91       	pop	r25
     9fa:	8f 91       	pop	r24
     9fc:	7f 91       	pop	r23
     9fe:	6f 91       	pop	r22
     a00:	5f 91       	pop	r21
     a02:	4f 91       	pop	r20
     a04:	3f 91       	pop	r19
     a06:	2f 91       	pop	r18
     a08:	0f 90       	pop	r0
     a0a:	0f be       	out	0x3f, r0	; 63
     a0c:	0f 90       	pop	r0
     a0e:	1f 90       	pop	r1
     a10:	18 95       	reti

00000a12 <_ZN14HardwareSerial17availableForWriteEv>:
     a12:	fc 01       	movw	r30, r24
     a14:	53 8d       	ldd	r21, Z+27	; 0x1b
     a16:	44 8d       	ldd	r20, Z+28	; 0x1c
     a18:	25 2f       	mov	r18, r21
     a1a:	30 e0       	ldi	r19, 0x00	; 0
     a1c:	84 2f       	mov	r24, r20
     a1e:	90 e0       	ldi	r25, 0x00	; 0
     a20:	82 1b       	sub	r24, r18
     a22:	93 0b       	sbc	r25, r19
     a24:	54 17       	cp	r21, r20
     a26:	10 f0       	brcs	.+4      	; 0xa2c <_ZN14HardwareSerial17availableForWriteEv+0x1a>
     a28:	cf 96       	adiw	r24, 0x3f	; 63
     a2a:	08 95       	ret
     a2c:	01 97       	sbiw	r24, 0x01	; 1
     a2e:	08 95       	ret

00000a30 <_ZN14HardwareSerial3endEv>:
     a30:	cf 93       	push	r28
     a32:	df 93       	push	r29
     a34:	ec 01       	movw	r28, r24
     a36:	e8 81       	ld	r30, Y
     a38:	f9 81       	ldd	r31, Y+1	; 0x01
     a3a:	02 84       	ldd	r0, Z+10	; 0x0a
     a3c:	f3 85       	ldd	r31, Z+11	; 0x0b
     a3e:	e0 2d       	mov	r30, r0
     a40:	09 95       	icall
     a42:	ea 89       	ldd	r30, Y+18	; 0x12
     a44:	fb 89       	ldd	r31, Y+19	; 0x13
     a46:	80 81       	ld	r24, Z
     a48:	8f 7e       	andi	r24, 0xEF	; 239
     a4a:	80 83       	st	Z, r24
     a4c:	ea 89       	ldd	r30, Y+18	; 0x12
     a4e:	fb 89       	ldd	r31, Y+19	; 0x13
     a50:	80 81       	ld	r24, Z
     a52:	87 7f       	andi	r24, 0xF7	; 247
     a54:	80 83       	st	Z, r24
     a56:	ea 89       	ldd	r30, Y+18	; 0x12
     a58:	fb 89       	ldd	r31, Y+19	; 0x13
     a5a:	80 81       	ld	r24, Z
     a5c:	8f 77       	andi	r24, 0x7F	; 127
     a5e:	80 83       	st	Z, r24
     a60:	ea 89       	ldd	r30, Y+18	; 0x12
     a62:	fb 89       	ldd	r31, Y+19	; 0x13
     a64:	80 81       	ld	r24, Z
     a66:	8f 7d       	andi	r24, 0xDF	; 223
     a68:	80 83       	st	Z, r24
     a6a:	8a 8d       	ldd	r24, Y+26	; 0x1a
     a6c:	89 8f       	std	Y+25, r24	; 0x19
     a6e:	df 91       	pop	r29
     a70:	cf 91       	pop	r28
     a72:	08 95       	ret

00000a74 <_ZN14HardwareSerial5beginEmh>:
     a74:	cf 92       	push	r12
     a76:	df 92       	push	r13
     a78:	ef 92       	push	r14
     a7a:	ff 92       	push	r15
     a7c:	1f 93       	push	r17
     a7e:	cf 93       	push	r28
     a80:	df 93       	push	r29
     a82:	ec 01       	movw	r28, r24
     a84:	6a 01       	movw	r12, r20
     a86:	7b 01       	movw	r14, r22
     a88:	12 2f       	mov	r17, r18
     a8a:	60 e0       	ldi	r22, 0x00	; 0
     a8c:	79 e0       	ldi	r23, 0x09	; 9
     a8e:	8d e3       	ldi	r24, 0x3D	; 61
     a90:	90 e0       	ldi	r25, 0x00	; 0
     a92:	a7 01       	movw	r20, r14
     a94:	96 01       	movw	r18, r12
     a96:	0e 94 9d 07 	call	0xf3a	; 0xf3a <__udivmodsi4>
     a9a:	da 01       	movw	r26, r20
     a9c:	c9 01       	movw	r24, r18
     a9e:	01 97       	sbiw	r24, 0x01	; 1
     aa0:	a1 09       	sbc	r26, r1
     aa2:	b1 09       	sbc	r27, r1
     aa4:	b6 95       	lsr	r27
     aa6:	a7 95       	ror	r26
     aa8:	97 95       	ror	r25
     aaa:	87 95       	ror	r24
     aac:	ac 01       	movw	r20, r24
     aae:	e8 89       	ldd	r30, Y+16	; 0x10
     ab0:	f9 89       	ldd	r31, Y+17	; 0x11
     ab2:	82 e0       	ldi	r24, 0x02	; 2
     ab4:	80 83       	st	Z, r24
     ab6:	c1 14       	cp	r12, r1
     ab8:	81 ee       	ldi	r24, 0xE1	; 225
     aba:	d8 06       	cpc	r13, r24
     abc:	e1 04       	cpc	r14, r1
     abe:	f1 04       	cpc	r15, r1
     ac0:	21 f0       	breq	.+8      	; 0xaca <_ZN14HardwareSerial5beginEmh+0x56>
     ac2:	41 15       	cp	r20, r1
     ac4:	80 e1       	ldi	r24, 0x10	; 16
     ac6:	58 07       	cpc	r21, r24
     ac8:	a8 f0       	brcs	.+42     	; 0xaf4 <_ZN14HardwareSerial5beginEmh+0x80>
     aca:	e8 89       	ldd	r30, Y+16	; 0x10
     acc:	f9 89       	ldd	r31, Y+17	; 0x11
     ace:	10 82       	st	Z, r1
     ad0:	60 e8       	ldi	r22, 0x80	; 128
     ad2:	74 e8       	ldi	r23, 0x84	; 132
     ad4:	8e e1       	ldi	r24, 0x1E	; 30
     ad6:	90 e0       	ldi	r25, 0x00	; 0
     ad8:	a7 01       	movw	r20, r14
     ada:	96 01       	movw	r18, r12
     adc:	0e 94 9d 07 	call	0xf3a	; 0xf3a <__udivmodsi4>
     ae0:	ba 01       	movw	r22, r20
     ae2:	a9 01       	movw	r20, r18
     ae4:	41 50       	subi	r20, 0x01	; 1
     ae6:	51 09       	sbc	r21, r1
     ae8:	61 09       	sbc	r22, r1
     aea:	71 09       	sbc	r23, r1
     aec:	76 95       	lsr	r23
     aee:	67 95       	ror	r22
     af0:	57 95       	ror	r21
     af2:	47 95       	ror	r20
     af4:	ec 85       	ldd	r30, Y+12	; 0x0c
     af6:	fd 85       	ldd	r31, Y+13	; 0x0d
     af8:	50 83       	st	Z, r21
     afa:	ee 85       	ldd	r30, Y+14	; 0x0e
     afc:	ff 85       	ldd	r31, Y+15	; 0x0f
     afe:	40 83       	st	Z, r20
     b00:	18 8e       	std	Y+24, r1	; 0x18
     b02:	ec 89       	ldd	r30, Y+20	; 0x14
     b04:	fd 89       	ldd	r31, Y+21	; 0x15
     b06:	10 83       	st	Z, r17
     b08:	ea 89       	ldd	r30, Y+18	; 0x12
     b0a:	fb 89       	ldd	r31, Y+19	; 0x13
     b0c:	80 81       	ld	r24, Z
     b0e:	80 61       	ori	r24, 0x10	; 16
     b10:	80 83       	st	Z, r24
     b12:	ea 89       	ldd	r30, Y+18	; 0x12
     b14:	fb 89       	ldd	r31, Y+19	; 0x13
     b16:	80 81       	ld	r24, Z
     b18:	88 60       	ori	r24, 0x08	; 8
     b1a:	80 83       	st	Z, r24
     b1c:	ea 89       	ldd	r30, Y+18	; 0x12
     b1e:	fb 89       	ldd	r31, Y+19	; 0x13
     b20:	80 81       	ld	r24, Z
     b22:	80 68       	ori	r24, 0x80	; 128
     b24:	80 83       	st	Z, r24
     b26:	ea 89       	ldd	r30, Y+18	; 0x12
     b28:	fb 89       	ldd	r31, Y+19	; 0x13
     b2a:	80 81       	ld	r24, Z
     b2c:	8f 7d       	andi	r24, 0xDF	; 223
     b2e:	80 83       	st	Z, r24
     b30:	df 91       	pop	r29
     b32:	cf 91       	pop	r28
     b34:	1f 91       	pop	r17
     b36:	ff 90       	pop	r15
     b38:	ef 90       	pop	r14
     b3a:	df 90       	pop	r13
     b3c:	cf 90       	pop	r12
     b3e:	08 95       	ret

00000b40 <_ZN14HardwareSerial5beginEm>:
     b40:	26 e0       	ldi	r18, 0x06	; 6
     b42:	0c 94 3a 05 	jmp	0xa74	; 0xa74 <_ZN14HardwareSerial5beginEmh>

00000b46 <_ZN14HardwareSerial17_tx_udr_empty_irqEv>:
     b46:	fc 01       	movw	r30, r24
     b48:	84 8d       	ldd	r24, Z+28	; 0x1c
     b4a:	df 01       	movw	r26, r30
     b4c:	a8 0f       	add	r26, r24
     b4e:	b1 1d       	adc	r27, r1
     b50:	a3 5a       	subi	r26, 0xA3	; 163
     b52:	bf 4f       	sbci	r27, 0xFF	; 255
     b54:	2c 91       	ld	r18, X
     b56:	84 8d       	ldd	r24, Z+28	; 0x1c
     b58:	90 e0       	ldi	r25, 0x00	; 0
     b5a:	01 96       	adiw	r24, 0x01	; 1
     b5c:	8f 73       	andi	r24, 0x3F	; 63
     b5e:	99 27       	eor	r25, r25
     b60:	84 8f       	std	Z+28, r24	; 0x1c
     b62:	a6 89       	ldd	r26, Z+22	; 0x16
     b64:	b7 89       	ldd	r27, Z+23	; 0x17
     b66:	2c 93       	st	X, r18
     b68:	a0 89       	ldd	r26, Z+16	; 0x10
     b6a:	b1 89       	ldd	r27, Z+17	; 0x11
     b6c:	8c 91       	ld	r24, X
     b6e:	80 64       	ori	r24, 0x40	; 64
     b70:	8c 93       	st	X, r24
     b72:	93 8d       	ldd	r25, Z+27	; 0x1b
     b74:	84 8d       	ldd	r24, Z+28	; 0x1c
     b76:	98 13       	cpse	r25, r24
     b78:	06 c0       	rjmp	.+12     	; 0xb86 <_ZN14HardwareSerial17_tx_udr_empty_irqEv+0x40>
     b7a:	02 88       	ldd	r0, Z+18	; 0x12
     b7c:	f3 89       	ldd	r31, Z+19	; 0x13
     b7e:	e0 2d       	mov	r30, r0
     b80:	80 81       	ld	r24, Z
     b82:	8f 7d       	andi	r24, 0xDF	; 223
     b84:	80 83       	st	Z, r24
     b86:	08 95       	ret

00000b88 <__vector_19>:
     b88:	1f 92       	push	r1
     b8a:	0f 92       	push	r0
     b8c:	0f b6       	in	r0, 0x3f	; 63
     b8e:	0f 92       	push	r0
     b90:	11 24       	eor	r1, r1
     b92:	2f 93       	push	r18
     b94:	3f 93       	push	r19
     b96:	4f 93       	push	r20
     b98:	5f 93       	push	r21
     b9a:	6f 93       	push	r22
     b9c:	7f 93       	push	r23
     b9e:	8f 93       	push	r24
     ba0:	9f 93       	push	r25
     ba2:	af 93       	push	r26
     ba4:	bf 93       	push	r27
     ba6:	ef 93       	push	r30
     ba8:	ff 93       	push	r31
     baa:	87 e3       	ldi	r24, 0x37	; 55
     bac:	96 e0       	ldi	r25, 0x06	; 6
     bae:	0e 94 a3 05 	call	0xb46	; 0xb46 <_ZN14HardwareSerial17_tx_udr_empty_irqEv>
     bb2:	ff 91       	pop	r31
     bb4:	ef 91       	pop	r30
     bb6:	bf 91       	pop	r27
     bb8:	af 91       	pop	r26
     bba:	9f 91       	pop	r25
     bbc:	8f 91       	pop	r24
     bbe:	7f 91       	pop	r23
     bc0:	6f 91       	pop	r22
     bc2:	5f 91       	pop	r21
     bc4:	4f 91       	pop	r20
     bc6:	3f 91       	pop	r19
     bc8:	2f 91       	pop	r18
     bca:	0f 90       	pop	r0
     bcc:	0f be       	out	0x3f, r0	; 63
     bce:	0f 90       	pop	r0
     bd0:	1f 90       	pop	r1
     bd2:	18 95       	reti

00000bd4 <_ZN14HardwareSerial5writeEh>:
     bd4:	ef 92       	push	r14
     bd6:	ff 92       	push	r15
     bd8:	0f 93       	push	r16
     bda:	1f 93       	push	r17
     bdc:	cf 93       	push	r28
     bde:	df 93       	push	r29
     be0:	ec 01       	movw	r28, r24
     be2:	81 e0       	ldi	r24, 0x01	; 1
     be4:	88 8f       	std	Y+24, r24	; 0x18
     be6:	9b 8d       	ldd	r25, Y+27	; 0x1b
     be8:	8c 8d       	ldd	r24, Y+28	; 0x1c
     bea:	98 13       	cpse	r25, r24
     bec:	05 c0       	rjmp	.+10     	; 0xbf8 <_ZN14HardwareSerial5writeEh+0x24>
     bee:	e8 89       	ldd	r30, Y+16	; 0x10
     bf0:	f9 89       	ldd	r31, Y+17	; 0x11
     bf2:	80 81       	ld	r24, Z
     bf4:	85 fd       	sbrc	r24, 5
     bf6:	24 c0       	rjmp	.+72     	; 0xc40 <_ZN14HardwareSerial5writeEh+0x6c>
     bf8:	f6 2e       	mov	r15, r22
     bfa:	0b 8d       	ldd	r16, Y+27	; 0x1b
     bfc:	10 e0       	ldi	r17, 0x00	; 0
     bfe:	0f 5f       	subi	r16, 0xFF	; 255
     c00:	1f 4f       	sbci	r17, 0xFF	; 255
     c02:	0f 73       	andi	r16, 0x3F	; 63
     c04:	11 27       	eor	r17, r17
     c06:	e0 2e       	mov	r14, r16
     c08:	8c 8d       	ldd	r24, Y+28	; 0x1c
     c0a:	8e 11       	cpse	r24, r14
     c0c:	0c c0       	rjmp	.+24     	; 0xc26 <_ZN14HardwareSerial5writeEh+0x52>
     c0e:	0f b6       	in	r0, 0x3f	; 63
     c10:	07 fc       	sbrc	r0, 7
     c12:	fa cf       	rjmp	.-12     	; 0xc08 <_ZN14HardwareSerial5writeEh+0x34>
     c14:	e8 89       	ldd	r30, Y+16	; 0x10
     c16:	f9 89       	ldd	r31, Y+17	; 0x11
     c18:	80 81       	ld	r24, Z
     c1a:	85 ff       	sbrs	r24, 5
     c1c:	f5 cf       	rjmp	.-22     	; 0xc08 <_ZN14HardwareSerial5writeEh+0x34>
     c1e:	ce 01       	movw	r24, r28
     c20:	0e 94 a3 05 	call	0xb46	; 0xb46 <_ZN14HardwareSerial17_tx_udr_empty_irqEv>
     c24:	f1 cf       	rjmp	.-30     	; 0xc08 <_ZN14HardwareSerial5writeEh+0x34>
     c26:	8b 8d       	ldd	r24, Y+27	; 0x1b
     c28:	fe 01       	movw	r30, r28
     c2a:	e8 0f       	add	r30, r24
     c2c:	f1 1d       	adc	r31, r1
     c2e:	e3 5a       	subi	r30, 0xA3	; 163
     c30:	ff 4f       	sbci	r31, 0xFF	; 255
     c32:	f0 82       	st	Z, r15
     c34:	0b 8f       	std	Y+27, r16	; 0x1b
     c36:	ea 89       	ldd	r30, Y+18	; 0x12
     c38:	fb 89       	ldd	r31, Y+19	; 0x13
     c3a:	80 81       	ld	r24, Z
     c3c:	80 62       	ori	r24, 0x20	; 32
     c3e:	07 c0       	rjmp	.+14     	; 0xc4e <_ZN14HardwareSerial5writeEh+0x7a>
     c40:	ee 89       	ldd	r30, Y+22	; 0x16
     c42:	ff 89       	ldd	r31, Y+23	; 0x17
     c44:	60 83       	st	Z, r22
     c46:	e8 89       	ldd	r30, Y+16	; 0x10
     c48:	f9 89       	ldd	r31, Y+17	; 0x11
     c4a:	80 81       	ld	r24, Z
     c4c:	80 64       	ori	r24, 0x40	; 64
     c4e:	80 83       	st	Z, r24
     c50:	81 e0       	ldi	r24, 0x01	; 1
     c52:	90 e0       	ldi	r25, 0x00	; 0
     c54:	df 91       	pop	r29
     c56:	cf 91       	pop	r28
     c58:	1f 91       	pop	r17
     c5a:	0f 91       	pop	r16
     c5c:	ff 90       	pop	r15
     c5e:	ef 90       	pop	r14
     c60:	08 95       	ret

00000c62 <_ZN14HardwareSerial5flushEv>:
     c62:	cf 93       	push	r28
     c64:	df 93       	push	r29
     c66:	ec 01       	movw	r28, r24
     c68:	88 8d       	ldd	r24, Y+24	; 0x18
     c6a:	88 23       	and	r24, r24
     c6c:	c9 f0       	breq	.+50     	; 0xca0 <_ZN14HardwareSerial5flushEv+0x3e>
     c6e:	ea 89       	ldd	r30, Y+18	; 0x12
     c70:	fb 89       	ldd	r31, Y+19	; 0x13
     c72:	80 81       	ld	r24, Z
     c74:	85 fd       	sbrc	r24, 5
     c76:	05 c0       	rjmp	.+10     	; 0xc82 <_ZN14HardwareSerial5flushEv+0x20>
     c78:	a8 89       	ldd	r26, Y+16	; 0x10
     c7a:	b9 89       	ldd	r27, Y+17	; 0x11
     c7c:	8c 91       	ld	r24, X
     c7e:	86 fd       	sbrc	r24, 6
     c80:	0f c0       	rjmp	.+30     	; 0xca0 <_ZN14HardwareSerial5flushEv+0x3e>
     c82:	0f b6       	in	r0, 0x3f	; 63
     c84:	07 fc       	sbrc	r0, 7
     c86:	f5 cf       	rjmp	.-22     	; 0xc72 <_ZN14HardwareSerial5flushEv+0x10>
     c88:	80 81       	ld	r24, Z
     c8a:	85 ff       	sbrs	r24, 5
     c8c:	f2 cf       	rjmp	.-28     	; 0xc72 <_ZN14HardwareSerial5flushEv+0x10>
     c8e:	a8 89       	ldd	r26, Y+16	; 0x10
     c90:	b9 89       	ldd	r27, Y+17	; 0x11
     c92:	8c 91       	ld	r24, X
     c94:	85 ff       	sbrs	r24, 5
     c96:	ed cf       	rjmp	.-38     	; 0xc72 <_ZN14HardwareSerial5flushEv+0x10>
     c98:	ce 01       	movw	r24, r28
     c9a:	0e 94 a3 05 	call	0xb46	; 0xb46 <_ZN14HardwareSerial17_tx_udr_empty_irqEv>
     c9e:	e7 cf       	rjmp	.-50     	; 0xc6e <_ZN14HardwareSerial5flushEv+0xc>
     ca0:	df 91       	pop	r29
     ca2:	cf 91       	pop	r28
     ca4:	08 95       	ret

00000ca6 <loop>:
     ca6:	08 95       	ret

00000ca8 <setup>:
     ca8:	cf 92       	push	r12
     caa:	df 92       	push	r13
     cac:	ef 92       	push	r14
     cae:	ff 92       	push	r15
     cb0:	0f 93       	push	r16
     cb2:	1f 93       	push	r17
     cb4:	cf 93       	push	r28
     cb6:	df 93       	push	r29
     cb8:	00 d0       	rcall	.+0      	; 0xcba <setup+0x12>
     cba:	cd b7       	in	r28, 0x3d	; 61
     cbc:	de b7       	in	r29, 0x3e	; 62
     cbe:	40 e8       	ldi	r20, 0x80	; 128
     cc0:	55 e2       	ldi	r21, 0x25	; 37
     cc2:	60 e0       	ldi	r22, 0x00	; 0
     cc4:	70 e0       	ldi	r23, 0x00	; 0
     cc6:	87 e3       	ldi	r24, 0x37	; 55
     cc8:	96 e0       	ldi	r25, 0x06	; 6
     cca:	0e 94 a0 05 	call	0xb40	; 0xb40 <_ZN14HardwareSerial5beginEm>
     cce:	91 e6       	ldi	r25, 0x61	; 97
     cd0:	f9 2e       	mov	r15, r25
     cd2:	fa 82       	std	Y+2, r15	; 0x02
     cd4:	81 e0       	ldi	r24, 0x01	; 1
     cd6:	90 e0       	ldi	r25, 0x00	; 0
     cd8:	0e 94 fc 01 	call	0x3f8	; 0x3f8 <_Znwj>
     cdc:	8c 01       	movw	r16, r24
     cde:	fc 01       	movw	r30, r24
     ce0:	f0 82       	st	Z, r15
     ce2:	81 e0       	ldi	r24, 0x01	; 1
     ce4:	89 83       	std	Y+1, r24	; 0x01
     ce6:	ce 01       	movw	r24, r28
     ce8:	01 96       	adiw	r24, 0x01	; 1
     cea:	7c 01       	movw	r14, r24
     cec:	fc 01       	movw	r30, r24
     cee:	e5 50       	subi	r30, 0x05	; 5
     cf0:	f1 40       	sbci	r31, 0x01	; 1
     cf2:	6f 01       	movw	r12, r30
     cf4:	66 e8       	ldi	r22, 0x86	; 134
     cf6:	71 e0       	ldi	r23, 0x01	; 1
     cf8:	87 e3       	ldi	r24, 0x37	; 55
     cfa:	96 e0       	ldi	r25, 0x06	; 6
     cfc:	0e 94 4c 03 	call	0x698	; 0x698 <_ZN5Print5printEPKc>
     d00:	40 e1       	ldi	r20, 0x10	; 16
     d02:	50 e0       	ldi	r21, 0x00	; 0
     d04:	60 e0       	ldi	r22, 0x00	; 0
     d06:	71 e0       	ldi	r23, 0x01	; 1
     d08:	87 e3       	ldi	r24, 0x37	; 55
     d0a:	96 e0       	ldi	r25, 0x06	; 6
     d0c:	0e 94 3a 03 	call	0x674	; 0x674 <_ZN5Print7printlnEii>
     d10:	69 ea       	ldi	r22, 0xA9	; 169
     d12:	71 e0       	ldi	r23, 0x01	; 1
     d14:	87 e3       	ldi	r24, 0x37	; 55
     d16:	96 e0       	ldi	r25, 0x06	; 6
     d18:	0e 94 4c 03 	call	0x698	; 0x698 <_ZN5Print5printEPKc>
     d1c:	40 e1       	ldi	r20, 0x10	; 16
     d1e:	50 e0       	ldi	r21, 0x00	; 0
     d20:	6e e6       	ldi	r22, 0x6E	; 110
     d22:	75 e0       	ldi	r23, 0x05	; 5
     d24:	87 e3       	ldi	r24, 0x37	; 55
     d26:	96 e0       	ldi	r25, 0x06	; 6
     d28:	0e 94 3a 03 	call	0x674	; 0x674 <_ZN5Print7printlnEii>
     d2c:	6c ec       	ldi	r22, 0xCC	; 204
     d2e:	71 e0       	ldi	r23, 0x01	; 1
     d30:	87 e3       	ldi	r24, 0x37	; 55
     d32:	96 e0       	ldi	r25, 0x06	; 6
     d34:	0e 94 4c 03 	call	0x698	; 0x698 <_ZN5Print5printEPKc>
     d38:	40 e1       	ldi	r20, 0x10	; 16
     d3a:	50 e0       	ldi	r21, 0x00	; 0
     d3c:	6e e6       	ldi	r22, 0x6E	; 110
     d3e:	75 e0       	ldi	r23, 0x05	; 5
     d40:	87 e3       	ldi	r24, 0x37	; 55
     d42:	96 e0       	ldi	r25, 0x06	; 6
     d44:	0e 94 3a 03 	call	0x674	; 0x674 <_ZN5Print7printlnEii>
     d48:	6f ee       	ldi	r22, 0xEF	; 239
     d4a:	71 e0       	ldi	r23, 0x01	; 1
     d4c:	87 e3       	ldi	r24, 0x37	; 55
     d4e:	96 e0       	ldi	r25, 0x06	; 6
     d50:	0e 94 4c 03 	call	0x698	; 0x698 <_ZN5Print5printEPKc>
     d54:	40 e1       	ldi	r20, 0x10	; 16
     d56:	50 e0       	ldi	r21, 0x00	; 0
     d58:	61 ee       	ldi	r22, 0xE1	; 225
     d5a:	76 e0       	ldi	r23, 0x06	; 6
     d5c:	87 e3       	ldi	r24, 0x37	; 55
     d5e:	96 e0       	ldi	r25, 0x06	; 6
     d60:	0e 94 3a 03 	call	0x674	; 0x674 <_ZN5Print7printlnEii>
     d64:	62 e1       	ldi	r22, 0x12	; 18
     d66:	72 e0       	ldi	r23, 0x02	; 2
     d68:	87 e3       	ldi	r24, 0x37	; 55
     d6a:	96 e0       	ldi	r25, 0x06	; 6
     d6c:	0e 94 4c 03 	call	0x698	; 0x698 <_ZN5Print5printEPKc>
     d70:	40 e1       	ldi	r20, 0x10	; 16
     d72:	50 e0       	ldi	r21, 0x00	; 0
     d74:	61 ee       	ldi	r22, 0xE1	; 225
     d76:	76 e0       	ldi	r23, 0x06	; 6
     d78:	87 e3       	ldi	r24, 0x37	; 55
     d7a:	96 e0       	ldi	r25, 0x06	; 6
     d7c:	0e 94 3a 03 	call	0x674	; 0x674 <_ZN5Print7printlnEii>
     d80:	65 e3       	ldi	r22, 0x35	; 53
     d82:	72 e0       	ldi	r23, 0x02	; 2
     d84:	87 e3       	ldi	r24, 0x37	; 55
     d86:	96 e0       	ldi	r25, 0x06	; 6
     d88:	0e 94 4c 03 	call	0x698	; 0x698 <_ZN5Print5printEPKc>
     d8c:	40 e1       	ldi	r20, 0x10	; 16
     d8e:	50 e0       	ldi	r21, 0x00	; 0
     d90:	b6 01       	movw	r22, r12
     d92:	87 e3       	ldi	r24, 0x37	; 55
     d94:	96 e0       	ldi	r25, 0x06	; 6
     d96:	0e 94 3a 03 	call	0x674	; 0x674 <_ZN5Print7printlnEii>
     d9a:	68 e5       	ldi	r22, 0x58	; 88
     d9c:	72 e0       	ldi	r23, 0x02	; 2
     d9e:	87 e3       	ldi	r24, 0x37	; 55
     da0:	96 e0       	ldi	r25, 0x06	; 6
     da2:	0e 94 4c 03 	call	0x698	; 0x698 <_ZN5Print5printEPKc>
     da6:	40 e1       	ldi	r20, 0x10	; 16
     da8:	50 e0       	ldi	r21, 0x00	; 0
     daa:	b7 01       	movw	r22, r14
     dac:	87 e3       	ldi	r24, 0x37	; 55
     dae:	96 e0       	ldi	r25, 0x06	; 6
     db0:	0e 94 3a 03 	call	0x674	; 0x674 <_ZN5Print7printlnEii>
     db4:	6b e7       	ldi	r22, 0x7B	; 123
     db6:	72 e0       	ldi	r23, 0x02	; 2
     db8:	87 e3       	ldi	r24, 0x37	; 55
     dba:	96 e0       	ldi	r25, 0x06	; 6
     dbc:	0e 94 4c 03 	call	0x698	; 0x698 <_ZN5Print5printEPKc>
     dc0:	40 e1       	ldi	r20, 0x10	; 16
     dc2:	50 e0       	ldi	r21, 0x00	; 0
     dc4:	6f ef       	ldi	r22, 0xFF	; 255
     dc6:	78 e0       	ldi	r23, 0x08	; 8
     dc8:	87 e3       	ldi	r24, 0x37	; 55
     dca:	96 e0       	ldi	r25, 0x06	; 6
     dcc:	0e 94 3a 03 	call	0x674	; 0x674 <_ZN5Print7printlnEii>
     dd0:	6e e9       	ldi	r22, 0x9E	; 158
     dd2:	72 e0       	ldi	r23, 0x02	; 2
     dd4:	87 e3       	ldi	r24, 0x37	; 55
     dd6:	96 e0       	ldi	r25, 0x06	; 6
     dd8:	0e 94 45 04 	call	0x88a	; 0x88a <_ZN5Print7printlnEPKc>
     ddc:	80 e0       	ldi	r24, 0x00	; 0
     dde:	91 e0       	ldi	r25, 0x01	; 1
     de0:	f1 e0       	ldi	r31, 0x01	; 1
     de2:	80 30       	cpi	r24, 0x00	; 0
     de4:	9f 07       	cpc	r25, r31
     de6:	38 f0       	brcs	.+14     	; 0xdf6 <setup+0x14e>
     de8:	8e 56       	subi	r24, 0x6E	; 110
     dea:	95 40       	sbci	r25, 0x05	; 5
     dec:	09 f0       	breq	.+2      	; 0xdf0 <setup+0x148>
     dee:	18 f4       	brcc	.+6      	; 0xdf6 <setup+0x14e>
     df0:	61 eb       	ldi	r22, 0xB1	; 177
     df2:	72 e0       	ldi	r23, 0x02	; 2
     df4:	02 c0       	rjmp	.+4      	; 0xdfa <setup+0x152>
     df6:	61 ef       	ldi	r22, 0xF1	; 241
     df8:	72 e0       	ldi	r23, 0x02	; 2
     dfa:	87 e3       	ldi	r24, 0x37	; 55
     dfc:	96 e0       	ldi	r25, 0x06	; 6
     dfe:	0e 94 45 04 	call	0x88a	; 0x88a <_ZN5Print7printlnEPKc>
     e02:	86 e3       	ldi	r24, 0x36	; 54
     e04:	96 e0       	ldi	r25, 0x06	; 6
     e06:	e5 e0       	ldi	r30, 0x05	; 5
     e08:	8e 36       	cpi	r24, 0x6E	; 110
     e0a:	9e 07       	cpc	r25, r30
     e0c:	38 f0       	brcs	.+14     	; 0xe1c <setup+0x174>
     e0e:	81 5e       	subi	r24, 0xE1	; 225
     e10:	96 40       	sbci	r25, 0x06	; 6
     e12:	09 f0       	breq	.+2      	; 0xe16 <setup+0x16e>
     e14:	18 f4       	brcc	.+6      	; 0xe1c <setup+0x174>
     e16:	62 e3       	ldi	r22, 0x32	; 50
     e18:	73 e0       	ldi	r23, 0x03	; 3
     e1a:	02 c0       	rjmp	.+4      	; 0xe20 <setup+0x178>
     e1c:	63 e7       	ldi	r22, 0x73	; 115
     e1e:	73 e0       	ldi	r23, 0x03	; 3
     e20:	87 e3       	ldi	r24, 0x37	; 55
     e22:	96 e0       	ldi	r25, 0x06	; 6
     e24:	0e 94 45 04 	call	0x88a	; 0x88a <_ZN5Print7printlnEPKc>
     e28:	26 e0       	ldi	r18, 0x06	; 6
     e2a:	01 3e       	cpi	r16, 0xE1	; 225
     e2c:	12 07       	cpc	r17, r18
     e2e:	30 f0       	brcs	.+12     	; 0xe3c <setup+0x194>
     e30:	c0 16       	cp	r12, r16
     e32:	d1 06       	cpc	r13, r17
     e34:	18 f0       	brcs	.+6      	; 0xe3c <setup+0x194>
     e36:	65 eb       	ldi	r22, 0xB5	; 181
     e38:	73 e0       	ldi	r23, 0x03	; 3
     e3a:	02 c0       	rjmp	.+4      	; 0xe40 <setup+0x198>
     e3c:	6b ef       	ldi	r22, 0xFB	; 251
     e3e:	73 e0       	ldi	r23, 0x03	; 3
     e40:	87 e3       	ldi	r24, 0x37	; 55
     e42:	96 e0       	ldi	r25, 0x06	; 6
     e44:	0e 94 45 04 	call	0x88a	; 0x88a <_ZN5Print7printlnEPKc>
     e48:	ce 01       	movw	r24, r28
     e4a:	02 96       	adiw	r24, 0x02	; 2
     e4c:	8e 15       	cp	r24, r14
     e4e:	9f 05       	cpc	r25, r15
     e50:	30 f0       	brcs	.+12     	; 0xe5e <setup+0x1b6>
     e52:	81 15       	cp	r24, r1
     e54:	99 40       	sbci	r25, 0x09	; 9
     e56:	18 f4       	brcc	.+6      	; 0xe5e <setup+0x1b6>
     e58:	62 e4       	ldi	r22, 0x42	; 66
     e5a:	74 e0       	ldi	r23, 0x04	; 4
     e5c:	02 c0       	rjmp	.+4      	; 0xe62 <setup+0x1ba>
     e5e:	6b e7       	ldi	r22, 0x7B	; 123
     e60:	74 e0       	ldi	r23, 0x04	; 4
     e62:	87 e3       	ldi	r24, 0x37	; 55
     e64:	96 e0       	ldi	r25, 0x06	; 6
     e66:	0e 94 45 04 	call	0x88a	; 0x88a <_ZN5Print7printlnEPKc>
     e6a:	6e e9       	ldi	r22, 0x9E	; 158
     e6c:	72 e0       	ldi	r23, 0x02	; 2
     e6e:	87 e3       	ldi	r24, 0x37	; 55
     e70:	96 e0       	ldi	r25, 0x06	; 6
     e72:	0e 94 45 04 	call	0x88a	; 0x88a <_ZN5Print7printlnEPKc>
     e76:	65 eb       	ldi	r22, 0xB5	; 181
     e78:	74 e0       	ldi	r23, 0x04	; 4
     e7a:	87 e3       	ldi	r24, 0x37	; 55
     e7c:	96 e0       	ldi	r25, 0x06	; 6
     e7e:	0e 94 4c 03 	call	0x698	; 0x698 <_ZN5Print5printEPKc>
     e82:	40 e1       	ldi	r20, 0x10	; 16
     e84:	50 e0       	ldi	r21, 0x00	; 0
     e86:	63 e9       	ldi	r22, 0x93	; 147
     e88:	71 e0       	ldi	r23, 0x01	; 1
     e8a:	87 e3       	ldi	r24, 0x37	; 55
     e8c:	96 e0       	ldi	r25, 0x06	; 6
     e8e:	0e 94 3a 03 	call	0x674	; 0x674 <_ZN5Print7printlnEii>
     e92:	63 ee       	ldi	r22, 0xE3	; 227
     e94:	74 e0       	ldi	r23, 0x04	; 4
     e96:	87 e3       	ldi	r24, 0x37	; 55
     e98:	96 e0       	ldi	r25, 0x06	; 6
     e9a:	0e 94 4c 03 	call	0x698	; 0x698 <_ZN5Print5printEPKc>
     e9e:	40 e1       	ldi	r20, 0x10	; 16
     ea0:	50 e0       	ldi	r21, 0x00	; 0
     ea2:	61 e9       	ldi	r22, 0x91	; 145
     ea4:	71 e0       	ldi	r23, 0x01	; 1
     ea6:	87 e3       	ldi	r24, 0x37	; 55
     ea8:	96 e0       	ldi	r25, 0x06	; 6
     eaa:	0e 94 3a 03 	call	0x674	; 0x674 <_ZN5Print7printlnEii>
     eae:	61 e1       	ldi	r22, 0x11	; 17
     eb0:	75 e0       	ldi	r23, 0x05	; 5
     eb2:	87 e3       	ldi	r24, 0x37	; 55
     eb4:	96 e0       	ldi	r25, 0x06	; 6
     eb6:	0e 94 4c 03 	call	0x698	; 0x698 <_ZN5Print5printEPKc>
     eba:	40 e1       	ldi	r20, 0x10	; 16
     ebc:	50 e0       	ldi	r21, 0x00	; 0
     ebe:	6f e8       	ldi	r22, 0x8F	; 143
     ec0:	71 e0       	ldi	r23, 0x01	; 1
     ec2:	87 e3       	ldi	r24, 0x37	; 55
     ec4:	96 e0       	ldi	r25, 0x06	; 6
     ec6:	0e 94 3a 03 	call	0x674	; 0x674 <_ZN5Print7printlnEii>
     eca:	6f e3       	ldi	r22, 0x3F	; 63
     ecc:	75 e0       	ldi	r23, 0x05	; 5
     ece:	87 e3       	ldi	r24, 0x37	; 55
     ed0:	96 e0       	ldi	r25, 0x06	; 6
     ed2:	0e 94 4c 03 	call	0x698	; 0x698 <_ZN5Print5printEPKc>
     ed6:	40 e1       	ldi	r20, 0x10	; 16
     ed8:	50 e0       	ldi	r21, 0x00	; 0
     eda:	62 e8       	ldi	r22, 0x82	; 130
     edc:	71 e0       	ldi	r23, 0x01	; 1
     ede:	87 e3       	ldi	r24, 0x37	; 55
     ee0:	96 e0       	ldi	r25, 0x06	; 6
     ee2:	0e 94 3a 03 	call	0x674	; 0x674 <_ZN5Print7printlnEii>
     ee6:	0e 94 93 01 	call	0x326	; 0x326 <_Z9functionAv>
     eea:	8e e6       	ldi	r24, 0x6E	; 110
     eec:	e8 2e       	mov	r14, r24
     eee:	85 e0       	ldi	r24, 0x05	; 5
     ef0:	f8 2e       	mov	r15, r24
     ef2:	f7 01       	movw	r30, r14
     ef4:	61 91       	ld	r22, Z+
     ef6:	7f 01       	movw	r14, r30
     ef8:	70 e0       	ldi	r23, 0x00	; 0
     efa:	40 e1       	ldi	r20, 0x10	; 16
     efc:	50 e0       	ldi	r21, 0x00	; 0
     efe:	87 e3       	ldi	r24, 0x37	; 55
     f00:	96 e0       	ldi	r25, 0x06	; 6
     f02:	0e 94 3a 03 	call	0x674	; 0x674 <_ZN5Print7printlnEii>
     f06:	f6 e3       	ldi	r31, 0x36	; 54
     f08:	ef 16       	cp	r14, r31
     f0a:	f6 e0       	ldi	r31, 0x06	; 6
     f0c:	ff 06       	cpc	r15, r31
     f0e:	89 f7       	brne	.-30     	; 0xef2 <setup+0x24a>
     f10:	c8 01       	movw	r24, r16
     f12:	0e 94 f8 01 	call	0x3f0	; 0x3f0 <_ZdlPv>
     f16:	0f 90       	pop	r0
     f18:	0f 90       	pop	r0
     f1a:	df 91       	pop	r29
     f1c:	cf 91       	pop	r28
     f1e:	1f 91       	pop	r17
     f20:	0f 91       	pop	r16
     f22:	ff 90       	pop	r15
     f24:	ef 90       	pop	r14
     f26:	df 90       	pop	r13
     f28:	cf 90       	pop	r12
     f2a:	08 95       	ret

00000f2c <main>:
     f2c:	0e 94 5f 00 	call	0xbe	; 0xbe <init>
     f30:	0e 94 54 06 	call	0xca8	; 0xca8 <setup>
     f34:	0e 94 78 01 	call	0x2f0	; 0x2f0 <_Z14serialEventRunv>
     f38:	fd cf       	rjmp	.-6      	; 0xf34 <main+0x8>

00000f3a <__udivmodsi4>:
     f3a:	a1 e2       	ldi	r26, 0x21	; 33
     f3c:	1a 2e       	mov	r1, r26
     f3e:	aa 1b       	sub	r26, r26
     f40:	bb 1b       	sub	r27, r27
     f42:	fd 01       	movw	r30, r26
     f44:	0d c0       	rjmp	.+26     	; 0xf60 <__udivmodsi4_ep>

00000f46 <__udivmodsi4_loop>:
     f46:	aa 1f       	adc	r26, r26
     f48:	bb 1f       	adc	r27, r27
     f4a:	ee 1f       	adc	r30, r30
     f4c:	ff 1f       	adc	r31, r31
     f4e:	a2 17       	cp	r26, r18
     f50:	b3 07       	cpc	r27, r19
     f52:	e4 07       	cpc	r30, r20
     f54:	f5 07       	cpc	r31, r21
     f56:	20 f0       	brcs	.+8      	; 0xf60 <__udivmodsi4_ep>
     f58:	a2 1b       	sub	r26, r18
     f5a:	b3 0b       	sbc	r27, r19
     f5c:	e4 0b       	sbc	r30, r20
     f5e:	f5 0b       	sbc	r31, r21

00000f60 <__udivmodsi4_ep>:
     f60:	66 1f       	adc	r22, r22
     f62:	77 1f       	adc	r23, r23
     f64:	88 1f       	adc	r24, r24
     f66:	99 1f       	adc	r25, r25
     f68:	1a 94       	dec	r1
     f6a:	69 f7       	brne	.-38     	; 0xf46 <__udivmodsi4_loop>
     f6c:	60 95       	com	r22
     f6e:	70 95       	com	r23
     f70:	80 95       	com	r24
     f72:	90 95       	com	r25
     f74:	9b 01       	movw	r18, r22
     f76:	ac 01       	movw	r20, r24
     f78:	bd 01       	movw	r22, r26
     f7a:	cf 01       	movw	r24, r30
     f7c:	08 95       	ret

00000f7e <__tablejump2__>:
     f7e:	ee 0f       	add	r30, r30
     f80:	ff 1f       	adc	r31, r31
     f82:	05 90       	lpm	r0, Z+
     f84:	f4 91       	lpm	r31, Z
     f86:	e0 2d       	mov	r30, r0
     f88:	09 94       	ijmp

00000f8a <__subsf3>:
     f8a:	50 58       	subi	r21, 0x80	; 128

00000f8c <__addsf3>:
     f8c:	bb 27       	eor	r27, r27
     f8e:	aa 27       	eor	r26, r26
     f90:	0e 94 dd 07 	call	0xfba	; 0xfba <__addsf3x>
     f94:	0c 94 50 09 	jmp	0x12a0	; 0x12a0 <__fp_round>
     f98:	0e 94 42 09 	call	0x1284	; 0x1284 <__fp_pscA>
     f9c:	38 f0       	brcs	.+14     	; 0xfac <__addsf3+0x20>
     f9e:	0e 94 49 09 	call	0x1292	; 0x1292 <__fp_pscB>
     fa2:	20 f0       	brcs	.+8      	; 0xfac <__addsf3+0x20>
     fa4:	39 f4       	brne	.+14     	; 0xfb4 <__addsf3+0x28>
     fa6:	9f 3f       	cpi	r25, 0xFF	; 255
     fa8:	19 f4       	brne	.+6      	; 0xfb0 <__addsf3+0x24>
     faa:	26 f4       	brtc	.+8      	; 0xfb4 <__addsf3+0x28>
     fac:	0c 94 3f 09 	jmp	0x127e	; 0x127e <__fp_nan>
     fb0:	0e f4       	brtc	.+2      	; 0xfb4 <__addsf3+0x28>
     fb2:	e0 95       	com	r30
     fb4:	e7 fb       	bst	r30, 7
     fb6:	0c 94 39 09 	jmp	0x1272	; 0x1272 <__fp_inf>

00000fba <__addsf3x>:
     fba:	e9 2f       	mov	r30, r25
     fbc:	0e 94 61 09 	call	0x12c2	; 0x12c2 <__fp_split3>
     fc0:	58 f3       	brcs	.-42     	; 0xf98 <__addsf3+0xc>
     fc2:	ba 17       	cp	r27, r26
     fc4:	62 07       	cpc	r22, r18
     fc6:	73 07       	cpc	r23, r19
     fc8:	84 07       	cpc	r24, r20
     fca:	95 07       	cpc	r25, r21
     fcc:	20 f0       	brcs	.+8      	; 0xfd6 <__addsf3x+0x1c>
     fce:	79 f4       	brne	.+30     	; 0xfee <__addsf3x+0x34>
     fd0:	a6 f5       	brtc	.+104    	; 0x103a <__addsf3x+0x80>
     fd2:	0c 94 83 09 	jmp	0x1306	; 0x1306 <__fp_zero>
     fd6:	0e f4       	brtc	.+2      	; 0xfda <__addsf3x+0x20>
     fd8:	e0 95       	com	r30
     fda:	0b 2e       	mov	r0, r27
     fdc:	ba 2f       	mov	r27, r26
     fde:	a0 2d       	mov	r26, r0
     fe0:	0b 01       	movw	r0, r22
     fe2:	b9 01       	movw	r22, r18
     fe4:	90 01       	movw	r18, r0
     fe6:	0c 01       	movw	r0, r24
     fe8:	ca 01       	movw	r24, r20
     fea:	a0 01       	movw	r20, r0
     fec:	11 24       	eor	r1, r1
     fee:	ff 27       	eor	r31, r31
     ff0:	59 1b       	sub	r21, r25
     ff2:	99 f0       	breq	.+38     	; 0x101a <__addsf3x+0x60>
     ff4:	59 3f       	cpi	r21, 0xF9	; 249
     ff6:	50 f4       	brcc	.+20     	; 0x100c <__addsf3x+0x52>
     ff8:	50 3e       	cpi	r21, 0xE0	; 224
     ffa:	68 f1       	brcs	.+90     	; 0x1056 <__addsf3x+0x9c>
     ffc:	1a 16       	cp	r1, r26
     ffe:	f0 40       	sbci	r31, 0x00	; 0
    1000:	a2 2f       	mov	r26, r18
    1002:	23 2f       	mov	r18, r19
    1004:	34 2f       	mov	r19, r20
    1006:	44 27       	eor	r20, r20
    1008:	58 5f       	subi	r21, 0xF8	; 248
    100a:	f3 cf       	rjmp	.-26     	; 0xff2 <__addsf3x+0x38>
    100c:	46 95       	lsr	r20
    100e:	37 95       	ror	r19
    1010:	27 95       	ror	r18
    1012:	a7 95       	ror	r26
    1014:	f0 40       	sbci	r31, 0x00	; 0
    1016:	53 95       	inc	r21
    1018:	c9 f7       	brne	.-14     	; 0x100c <__addsf3x+0x52>
    101a:	7e f4       	brtc	.+30     	; 0x103a <__addsf3x+0x80>
    101c:	1f 16       	cp	r1, r31
    101e:	ba 0b       	sbc	r27, r26
    1020:	62 0b       	sbc	r22, r18
    1022:	73 0b       	sbc	r23, r19
    1024:	84 0b       	sbc	r24, r20
    1026:	ba f0       	brmi	.+46     	; 0x1056 <__addsf3x+0x9c>
    1028:	91 50       	subi	r25, 0x01	; 1
    102a:	a1 f0       	breq	.+40     	; 0x1054 <__addsf3x+0x9a>
    102c:	ff 0f       	add	r31, r31
    102e:	bb 1f       	adc	r27, r27
    1030:	66 1f       	adc	r22, r22
    1032:	77 1f       	adc	r23, r23
    1034:	88 1f       	adc	r24, r24
    1036:	c2 f7       	brpl	.-16     	; 0x1028 <__addsf3x+0x6e>
    1038:	0e c0       	rjmp	.+28     	; 0x1056 <__addsf3x+0x9c>
    103a:	ba 0f       	add	r27, r26
    103c:	62 1f       	adc	r22, r18
    103e:	73 1f       	adc	r23, r19
    1040:	84 1f       	adc	r24, r20
    1042:	48 f4       	brcc	.+18     	; 0x1056 <__addsf3x+0x9c>
    1044:	87 95       	ror	r24
    1046:	77 95       	ror	r23
    1048:	67 95       	ror	r22
    104a:	b7 95       	ror	r27
    104c:	f7 95       	ror	r31
    104e:	9e 3f       	cpi	r25, 0xFE	; 254
    1050:	08 f0       	brcs	.+2      	; 0x1054 <__addsf3x+0x9a>
    1052:	b0 cf       	rjmp	.-160    	; 0xfb4 <__addsf3+0x28>
    1054:	93 95       	inc	r25
    1056:	88 0f       	add	r24, r24
    1058:	08 f0       	brcs	.+2      	; 0x105c <__addsf3x+0xa2>
    105a:	99 27       	eor	r25, r25
    105c:	ee 0f       	add	r30, r30
    105e:	97 95       	ror	r25
    1060:	87 95       	ror	r24
    1062:	08 95       	ret

00001064 <__cmpsf2>:
    1064:	0e 94 15 09 	call	0x122a	; 0x122a <__fp_cmp>
    1068:	08 f4       	brcc	.+2      	; 0x106c <__cmpsf2+0x8>
    106a:	81 e0       	ldi	r24, 0x01	; 1
    106c:	08 95       	ret

0000106e <__divsf3>:
    106e:	0e 94 4b 08 	call	0x1096	; 0x1096 <__divsf3x>
    1072:	0c 94 50 09 	jmp	0x12a0	; 0x12a0 <__fp_round>
    1076:	0e 94 49 09 	call	0x1292	; 0x1292 <__fp_pscB>
    107a:	58 f0       	brcs	.+22     	; 0x1092 <__divsf3+0x24>
    107c:	0e 94 42 09 	call	0x1284	; 0x1284 <__fp_pscA>
    1080:	40 f0       	brcs	.+16     	; 0x1092 <__divsf3+0x24>
    1082:	29 f4       	brne	.+10     	; 0x108e <__divsf3+0x20>
    1084:	5f 3f       	cpi	r21, 0xFF	; 255
    1086:	29 f0       	breq	.+10     	; 0x1092 <__divsf3+0x24>
    1088:	0c 94 39 09 	jmp	0x1272	; 0x1272 <__fp_inf>
    108c:	51 11       	cpse	r21, r1
    108e:	0c 94 84 09 	jmp	0x1308	; 0x1308 <__fp_szero>
    1092:	0c 94 3f 09 	jmp	0x127e	; 0x127e <__fp_nan>

00001096 <__divsf3x>:
    1096:	0e 94 61 09 	call	0x12c2	; 0x12c2 <__fp_split3>
    109a:	68 f3       	brcs	.-38     	; 0x1076 <__divsf3+0x8>

0000109c <__divsf3_pse>:
    109c:	99 23       	and	r25, r25
    109e:	b1 f3       	breq	.-20     	; 0x108c <__divsf3+0x1e>
    10a0:	55 23       	and	r21, r21
    10a2:	91 f3       	breq	.-28     	; 0x1088 <__divsf3+0x1a>
    10a4:	95 1b       	sub	r25, r21
    10a6:	55 0b       	sbc	r21, r21
    10a8:	bb 27       	eor	r27, r27
    10aa:	aa 27       	eor	r26, r26
    10ac:	62 17       	cp	r22, r18
    10ae:	73 07       	cpc	r23, r19
    10b0:	84 07       	cpc	r24, r20
    10b2:	38 f0       	brcs	.+14     	; 0x10c2 <__divsf3_pse+0x26>
    10b4:	9f 5f       	subi	r25, 0xFF	; 255
    10b6:	5f 4f       	sbci	r21, 0xFF	; 255
    10b8:	22 0f       	add	r18, r18
    10ba:	33 1f       	adc	r19, r19
    10bc:	44 1f       	adc	r20, r20
    10be:	aa 1f       	adc	r26, r26
    10c0:	a9 f3       	breq	.-22     	; 0x10ac <__divsf3_pse+0x10>
    10c2:	35 d0       	rcall	.+106    	; 0x112e <__divsf3_pse+0x92>
    10c4:	0e 2e       	mov	r0, r30
    10c6:	3a f0       	brmi	.+14     	; 0x10d6 <__divsf3_pse+0x3a>
    10c8:	e0 e8       	ldi	r30, 0x80	; 128
    10ca:	32 d0       	rcall	.+100    	; 0x1130 <__divsf3_pse+0x94>
    10cc:	91 50       	subi	r25, 0x01	; 1
    10ce:	50 40       	sbci	r21, 0x00	; 0
    10d0:	e6 95       	lsr	r30
    10d2:	00 1c       	adc	r0, r0
    10d4:	ca f7       	brpl	.-14     	; 0x10c8 <__divsf3_pse+0x2c>
    10d6:	2b d0       	rcall	.+86     	; 0x112e <__divsf3_pse+0x92>
    10d8:	fe 2f       	mov	r31, r30
    10da:	29 d0       	rcall	.+82     	; 0x112e <__divsf3_pse+0x92>
    10dc:	66 0f       	add	r22, r22
    10de:	77 1f       	adc	r23, r23
    10e0:	88 1f       	adc	r24, r24
    10e2:	bb 1f       	adc	r27, r27
    10e4:	26 17       	cp	r18, r22
    10e6:	37 07       	cpc	r19, r23
    10e8:	48 07       	cpc	r20, r24
    10ea:	ab 07       	cpc	r26, r27
    10ec:	b0 e8       	ldi	r27, 0x80	; 128
    10ee:	09 f0       	breq	.+2      	; 0x10f2 <__divsf3_pse+0x56>
    10f0:	bb 0b       	sbc	r27, r27
    10f2:	80 2d       	mov	r24, r0
    10f4:	bf 01       	movw	r22, r30
    10f6:	ff 27       	eor	r31, r31
    10f8:	93 58       	subi	r25, 0x83	; 131
    10fa:	5f 4f       	sbci	r21, 0xFF	; 255
    10fc:	3a f0       	brmi	.+14     	; 0x110c <__divsf3_pse+0x70>
    10fe:	9e 3f       	cpi	r25, 0xFE	; 254
    1100:	51 05       	cpc	r21, r1
    1102:	78 f0       	brcs	.+30     	; 0x1122 <__divsf3_pse+0x86>
    1104:	0c 94 39 09 	jmp	0x1272	; 0x1272 <__fp_inf>
    1108:	0c 94 84 09 	jmp	0x1308	; 0x1308 <__fp_szero>
    110c:	5f 3f       	cpi	r21, 0xFF	; 255
    110e:	e4 f3       	brlt	.-8      	; 0x1108 <__divsf3_pse+0x6c>
    1110:	98 3e       	cpi	r25, 0xE8	; 232
    1112:	d4 f3       	brlt	.-12     	; 0x1108 <__divsf3_pse+0x6c>
    1114:	86 95       	lsr	r24
    1116:	77 95       	ror	r23
    1118:	67 95       	ror	r22
    111a:	b7 95       	ror	r27
    111c:	f7 95       	ror	r31
    111e:	9f 5f       	subi	r25, 0xFF	; 255
    1120:	c9 f7       	brne	.-14     	; 0x1114 <__divsf3_pse+0x78>
    1122:	88 0f       	add	r24, r24
    1124:	91 1d       	adc	r25, r1
    1126:	96 95       	lsr	r25
    1128:	87 95       	ror	r24
    112a:	97 f9       	bld	r25, 7
    112c:	08 95       	ret
    112e:	e1 e0       	ldi	r30, 0x01	; 1
    1130:	66 0f       	add	r22, r22
    1132:	77 1f       	adc	r23, r23
    1134:	88 1f       	adc	r24, r24
    1136:	bb 1f       	adc	r27, r27
    1138:	62 17       	cp	r22, r18
    113a:	73 07       	cpc	r23, r19
    113c:	84 07       	cpc	r24, r20
    113e:	ba 07       	cpc	r27, r26
    1140:	20 f0       	brcs	.+8      	; 0x114a <__divsf3_pse+0xae>
    1142:	62 1b       	sub	r22, r18
    1144:	73 0b       	sbc	r23, r19
    1146:	84 0b       	sbc	r24, r20
    1148:	ba 0b       	sbc	r27, r26
    114a:	ee 1f       	adc	r30, r30
    114c:	88 f7       	brcc	.-30     	; 0x1130 <__divsf3_pse+0x94>
    114e:	e0 95       	com	r30
    1150:	08 95       	ret

00001152 <__fixunssfsi>:
    1152:	0e 94 69 09 	call	0x12d2	; 0x12d2 <__fp_splitA>
    1156:	88 f0       	brcs	.+34     	; 0x117a <__fixunssfsi+0x28>
    1158:	9f 57       	subi	r25, 0x7F	; 127
    115a:	98 f0       	brcs	.+38     	; 0x1182 <__fixunssfsi+0x30>
    115c:	b9 2f       	mov	r27, r25
    115e:	99 27       	eor	r25, r25
    1160:	b7 51       	subi	r27, 0x17	; 23
    1162:	b0 f0       	brcs	.+44     	; 0x1190 <__fixunssfsi+0x3e>
    1164:	e1 f0       	breq	.+56     	; 0x119e <__fixunssfsi+0x4c>
    1166:	66 0f       	add	r22, r22
    1168:	77 1f       	adc	r23, r23
    116a:	88 1f       	adc	r24, r24
    116c:	99 1f       	adc	r25, r25
    116e:	1a f0       	brmi	.+6      	; 0x1176 <__fixunssfsi+0x24>
    1170:	ba 95       	dec	r27
    1172:	c9 f7       	brne	.-14     	; 0x1166 <__fixunssfsi+0x14>
    1174:	14 c0       	rjmp	.+40     	; 0x119e <__fixunssfsi+0x4c>
    1176:	b1 30       	cpi	r27, 0x01	; 1
    1178:	91 f0       	breq	.+36     	; 0x119e <__fixunssfsi+0x4c>
    117a:	0e 94 83 09 	call	0x1306	; 0x1306 <__fp_zero>
    117e:	b1 e0       	ldi	r27, 0x01	; 1
    1180:	08 95       	ret
    1182:	0c 94 83 09 	jmp	0x1306	; 0x1306 <__fp_zero>
    1186:	67 2f       	mov	r22, r23
    1188:	78 2f       	mov	r23, r24
    118a:	88 27       	eor	r24, r24
    118c:	b8 5f       	subi	r27, 0xF8	; 248
    118e:	39 f0       	breq	.+14     	; 0x119e <__fixunssfsi+0x4c>
    1190:	b9 3f       	cpi	r27, 0xF9	; 249
    1192:	cc f3       	brlt	.-14     	; 0x1186 <__fixunssfsi+0x34>
    1194:	86 95       	lsr	r24
    1196:	77 95       	ror	r23
    1198:	67 95       	ror	r22
    119a:	b3 95       	inc	r27
    119c:	d9 f7       	brne	.-10     	; 0x1194 <__fixunssfsi+0x42>
    119e:	3e f4       	brtc	.+14     	; 0x11ae <__fixunssfsi+0x5c>
    11a0:	90 95       	com	r25
    11a2:	80 95       	com	r24
    11a4:	70 95       	com	r23
    11a6:	61 95       	neg	r22
    11a8:	7f 4f       	sbci	r23, 0xFF	; 255
    11aa:	8f 4f       	sbci	r24, 0xFF	; 255
    11ac:	9f 4f       	sbci	r25, 0xFF	; 255
    11ae:	08 95       	ret

000011b0 <__floatunsisf>:
    11b0:	e8 94       	clt
    11b2:	09 c0       	rjmp	.+18     	; 0x11c6 <__floatsisf+0x12>

000011b4 <__floatsisf>:
    11b4:	97 fb       	bst	r25, 7
    11b6:	3e f4       	brtc	.+14     	; 0x11c6 <__floatsisf+0x12>
    11b8:	90 95       	com	r25
    11ba:	80 95       	com	r24
    11bc:	70 95       	com	r23
    11be:	61 95       	neg	r22
    11c0:	7f 4f       	sbci	r23, 0xFF	; 255
    11c2:	8f 4f       	sbci	r24, 0xFF	; 255
    11c4:	9f 4f       	sbci	r25, 0xFF	; 255
    11c6:	99 23       	and	r25, r25
    11c8:	a9 f0       	breq	.+42     	; 0x11f4 <__floatsisf+0x40>
    11ca:	f9 2f       	mov	r31, r25
    11cc:	96 e9       	ldi	r25, 0x96	; 150
    11ce:	bb 27       	eor	r27, r27
    11d0:	93 95       	inc	r25
    11d2:	f6 95       	lsr	r31
    11d4:	87 95       	ror	r24
    11d6:	77 95       	ror	r23
    11d8:	67 95       	ror	r22
    11da:	b7 95       	ror	r27
    11dc:	f1 11       	cpse	r31, r1
    11de:	f8 cf       	rjmp	.-16     	; 0x11d0 <__floatsisf+0x1c>
    11e0:	fa f4       	brpl	.+62     	; 0x1220 <__floatsisf+0x6c>
    11e2:	bb 0f       	add	r27, r27
    11e4:	11 f4       	brne	.+4      	; 0x11ea <__floatsisf+0x36>
    11e6:	60 ff       	sbrs	r22, 0
    11e8:	1b c0       	rjmp	.+54     	; 0x1220 <__floatsisf+0x6c>
    11ea:	6f 5f       	subi	r22, 0xFF	; 255
    11ec:	7f 4f       	sbci	r23, 0xFF	; 255
    11ee:	8f 4f       	sbci	r24, 0xFF	; 255
    11f0:	9f 4f       	sbci	r25, 0xFF	; 255
    11f2:	16 c0       	rjmp	.+44     	; 0x1220 <__floatsisf+0x6c>
    11f4:	88 23       	and	r24, r24
    11f6:	11 f0       	breq	.+4      	; 0x11fc <__floatsisf+0x48>
    11f8:	96 e9       	ldi	r25, 0x96	; 150
    11fa:	11 c0       	rjmp	.+34     	; 0x121e <__floatsisf+0x6a>
    11fc:	77 23       	and	r23, r23
    11fe:	21 f0       	breq	.+8      	; 0x1208 <__floatsisf+0x54>
    1200:	9e e8       	ldi	r25, 0x8E	; 142
    1202:	87 2f       	mov	r24, r23
    1204:	76 2f       	mov	r23, r22
    1206:	05 c0       	rjmp	.+10     	; 0x1212 <__floatsisf+0x5e>
    1208:	66 23       	and	r22, r22
    120a:	71 f0       	breq	.+28     	; 0x1228 <__floatsisf+0x74>
    120c:	96 e8       	ldi	r25, 0x86	; 134
    120e:	86 2f       	mov	r24, r22
    1210:	70 e0       	ldi	r23, 0x00	; 0
    1212:	60 e0       	ldi	r22, 0x00	; 0
    1214:	2a f0       	brmi	.+10     	; 0x1220 <__floatsisf+0x6c>
    1216:	9a 95       	dec	r25
    1218:	66 0f       	add	r22, r22
    121a:	77 1f       	adc	r23, r23
    121c:	88 1f       	adc	r24, r24
    121e:	da f7       	brpl	.-10     	; 0x1216 <__floatsisf+0x62>
    1220:	88 0f       	add	r24, r24
    1222:	96 95       	lsr	r25
    1224:	87 95       	ror	r24
    1226:	97 f9       	bld	r25, 7
    1228:	08 95       	ret

0000122a <__fp_cmp>:
    122a:	99 0f       	add	r25, r25
    122c:	00 08       	sbc	r0, r0
    122e:	55 0f       	add	r21, r21
    1230:	aa 0b       	sbc	r26, r26
    1232:	e0 e8       	ldi	r30, 0x80	; 128
    1234:	fe ef       	ldi	r31, 0xFE	; 254
    1236:	16 16       	cp	r1, r22
    1238:	17 06       	cpc	r1, r23
    123a:	e8 07       	cpc	r30, r24
    123c:	f9 07       	cpc	r31, r25
    123e:	c0 f0       	brcs	.+48     	; 0x1270 <__fp_cmp+0x46>
    1240:	12 16       	cp	r1, r18
    1242:	13 06       	cpc	r1, r19
    1244:	e4 07       	cpc	r30, r20
    1246:	f5 07       	cpc	r31, r21
    1248:	98 f0       	brcs	.+38     	; 0x1270 <__fp_cmp+0x46>
    124a:	62 1b       	sub	r22, r18
    124c:	73 0b       	sbc	r23, r19
    124e:	84 0b       	sbc	r24, r20
    1250:	95 0b       	sbc	r25, r21
    1252:	39 f4       	brne	.+14     	; 0x1262 <__fp_cmp+0x38>
    1254:	0a 26       	eor	r0, r26
    1256:	61 f0       	breq	.+24     	; 0x1270 <__fp_cmp+0x46>
    1258:	23 2b       	or	r18, r19
    125a:	24 2b       	or	r18, r20
    125c:	25 2b       	or	r18, r21
    125e:	21 f4       	brne	.+8      	; 0x1268 <__fp_cmp+0x3e>
    1260:	08 95       	ret
    1262:	0a 26       	eor	r0, r26
    1264:	09 f4       	brne	.+2      	; 0x1268 <__fp_cmp+0x3e>
    1266:	a1 40       	sbci	r26, 0x01	; 1
    1268:	a6 95       	lsr	r26
    126a:	8f ef       	ldi	r24, 0xFF	; 255
    126c:	81 1d       	adc	r24, r1
    126e:	81 1d       	adc	r24, r1
    1270:	08 95       	ret

00001272 <__fp_inf>:
    1272:	97 f9       	bld	r25, 7
    1274:	9f 67       	ori	r25, 0x7F	; 127
    1276:	80 e8       	ldi	r24, 0x80	; 128
    1278:	70 e0       	ldi	r23, 0x00	; 0
    127a:	60 e0       	ldi	r22, 0x00	; 0
    127c:	08 95       	ret

0000127e <__fp_nan>:
    127e:	9f ef       	ldi	r25, 0xFF	; 255
    1280:	80 ec       	ldi	r24, 0xC0	; 192
    1282:	08 95       	ret

00001284 <__fp_pscA>:
    1284:	00 24       	eor	r0, r0
    1286:	0a 94       	dec	r0
    1288:	16 16       	cp	r1, r22
    128a:	17 06       	cpc	r1, r23
    128c:	18 06       	cpc	r1, r24
    128e:	09 06       	cpc	r0, r25
    1290:	08 95       	ret

00001292 <__fp_pscB>:
    1292:	00 24       	eor	r0, r0
    1294:	0a 94       	dec	r0
    1296:	12 16       	cp	r1, r18
    1298:	13 06       	cpc	r1, r19
    129a:	14 06       	cpc	r1, r20
    129c:	05 06       	cpc	r0, r21
    129e:	08 95       	ret

000012a0 <__fp_round>:
    12a0:	09 2e       	mov	r0, r25
    12a2:	03 94       	inc	r0
    12a4:	00 0c       	add	r0, r0
    12a6:	11 f4       	brne	.+4      	; 0x12ac <__fp_round+0xc>
    12a8:	88 23       	and	r24, r24
    12aa:	52 f0       	brmi	.+20     	; 0x12c0 <__fp_round+0x20>
    12ac:	bb 0f       	add	r27, r27
    12ae:	40 f4       	brcc	.+16     	; 0x12c0 <__fp_round+0x20>
    12b0:	bf 2b       	or	r27, r31
    12b2:	11 f4       	brne	.+4      	; 0x12b8 <__fp_round+0x18>
    12b4:	60 ff       	sbrs	r22, 0
    12b6:	04 c0       	rjmp	.+8      	; 0x12c0 <__fp_round+0x20>
    12b8:	6f 5f       	subi	r22, 0xFF	; 255
    12ba:	7f 4f       	sbci	r23, 0xFF	; 255
    12bc:	8f 4f       	sbci	r24, 0xFF	; 255
    12be:	9f 4f       	sbci	r25, 0xFF	; 255
    12c0:	08 95       	ret

000012c2 <__fp_split3>:
    12c2:	57 fd       	sbrc	r21, 7
    12c4:	90 58       	subi	r25, 0x80	; 128
    12c6:	44 0f       	add	r20, r20
    12c8:	55 1f       	adc	r21, r21
    12ca:	59 f0       	breq	.+22     	; 0x12e2 <__fp_splitA+0x10>
    12cc:	5f 3f       	cpi	r21, 0xFF	; 255
    12ce:	71 f0       	breq	.+28     	; 0x12ec <__fp_splitA+0x1a>
    12d0:	47 95       	ror	r20

000012d2 <__fp_splitA>:
    12d2:	88 0f       	add	r24, r24
    12d4:	97 fb       	bst	r25, 7
    12d6:	99 1f       	adc	r25, r25
    12d8:	61 f0       	breq	.+24     	; 0x12f2 <__fp_splitA+0x20>
    12da:	9f 3f       	cpi	r25, 0xFF	; 255
    12dc:	79 f0       	breq	.+30     	; 0x12fc <__fp_splitA+0x2a>
    12de:	87 95       	ror	r24
    12e0:	08 95       	ret
    12e2:	12 16       	cp	r1, r18
    12e4:	13 06       	cpc	r1, r19
    12e6:	14 06       	cpc	r1, r20
    12e8:	55 1f       	adc	r21, r21
    12ea:	f2 cf       	rjmp	.-28     	; 0x12d0 <__fp_split3+0xe>
    12ec:	46 95       	lsr	r20
    12ee:	f1 df       	rcall	.-30     	; 0x12d2 <__fp_splitA>
    12f0:	08 c0       	rjmp	.+16     	; 0x1302 <__fp_splitA+0x30>
    12f2:	16 16       	cp	r1, r22
    12f4:	17 06       	cpc	r1, r23
    12f6:	18 06       	cpc	r1, r24
    12f8:	99 1f       	adc	r25, r25
    12fa:	f1 cf       	rjmp	.-30     	; 0x12de <__fp_splitA+0xc>
    12fc:	86 95       	lsr	r24
    12fe:	71 05       	cpc	r23, r1
    1300:	61 05       	cpc	r22, r1
    1302:	08 94       	sec
    1304:	08 95       	ret

00001306 <__fp_zero>:
    1306:	e8 94       	clt

00001308 <__fp_szero>:
    1308:	bb 27       	eor	r27, r27
    130a:	66 27       	eor	r22, r22
    130c:	77 27       	eor	r23, r23
    130e:	cb 01       	movw	r24, r22
    1310:	97 f9       	bld	r25, 7
    1312:	08 95       	ret

00001314 <__gesf2>:
    1314:	0e 94 15 09 	call	0x122a	; 0x122a <__fp_cmp>
    1318:	08 f4       	brcc	.+2      	; 0x131c <__gesf2+0x8>
    131a:	8f ef       	ldi	r24, 0xFF	; 255
    131c:	08 95       	ret

0000131e <__mulsf3>:
    131e:	0e 94 a2 09 	call	0x1344	; 0x1344 <__mulsf3x>
    1322:	0c 94 50 09 	jmp	0x12a0	; 0x12a0 <__fp_round>
    1326:	0e 94 42 09 	call	0x1284	; 0x1284 <__fp_pscA>
    132a:	38 f0       	brcs	.+14     	; 0x133a <__mulsf3+0x1c>
    132c:	0e 94 49 09 	call	0x1292	; 0x1292 <__fp_pscB>
    1330:	20 f0       	brcs	.+8      	; 0x133a <__mulsf3+0x1c>
    1332:	95 23       	and	r25, r21
    1334:	11 f0       	breq	.+4      	; 0x133a <__mulsf3+0x1c>
    1336:	0c 94 39 09 	jmp	0x1272	; 0x1272 <__fp_inf>
    133a:	0c 94 3f 09 	jmp	0x127e	; 0x127e <__fp_nan>
    133e:	11 24       	eor	r1, r1
    1340:	0c 94 84 09 	jmp	0x1308	; 0x1308 <__fp_szero>

00001344 <__mulsf3x>:
    1344:	0e 94 61 09 	call	0x12c2	; 0x12c2 <__fp_split3>
    1348:	70 f3       	brcs	.-36     	; 0x1326 <__mulsf3+0x8>

0000134a <__mulsf3_pse>:
    134a:	95 9f       	mul	r25, r21
    134c:	c1 f3       	breq	.-16     	; 0x133e <__mulsf3+0x20>
    134e:	95 0f       	add	r25, r21
    1350:	50 e0       	ldi	r21, 0x00	; 0
    1352:	55 1f       	adc	r21, r21
    1354:	62 9f       	mul	r22, r18
    1356:	f0 01       	movw	r30, r0
    1358:	72 9f       	mul	r23, r18
    135a:	bb 27       	eor	r27, r27
    135c:	f0 0d       	add	r31, r0
    135e:	b1 1d       	adc	r27, r1
    1360:	63 9f       	mul	r22, r19
    1362:	aa 27       	eor	r26, r26
    1364:	f0 0d       	add	r31, r0
    1366:	b1 1d       	adc	r27, r1
    1368:	aa 1f       	adc	r26, r26
    136a:	64 9f       	mul	r22, r20
    136c:	66 27       	eor	r22, r22
    136e:	b0 0d       	add	r27, r0
    1370:	a1 1d       	adc	r26, r1
    1372:	66 1f       	adc	r22, r22
    1374:	82 9f       	mul	r24, r18
    1376:	22 27       	eor	r18, r18
    1378:	b0 0d       	add	r27, r0
    137a:	a1 1d       	adc	r26, r1
    137c:	62 1f       	adc	r22, r18
    137e:	73 9f       	mul	r23, r19
    1380:	b0 0d       	add	r27, r0
    1382:	a1 1d       	adc	r26, r1
    1384:	62 1f       	adc	r22, r18
    1386:	83 9f       	mul	r24, r19
    1388:	a0 0d       	add	r26, r0
    138a:	61 1d       	adc	r22, r1
    138c:	22 1f       	adc	r18, r18
    138e:	74 9f       	mul	r23, r20
    1390:	33 27       	eor	r19, r19
    1392:	a0 0d       	add	r26, r0
    1394:	61 1d       	adc	r22, r1
    1396:	23 1f       	adc	r18, r19
    1398:	84 9f       	mul	r24, r20
    139a:	60 0d       	add	r22, r0
    139c:	21 1d       	adc	r18, r1
    139e:	82 2f       	mov	r24, r18
    13a0:	76 2f       	mov	r23, r22
    13a2:	6a 2f       	mov	r22, r26
    13a4:	11 24       	eor	r1, r1
    13a6:	9f 57       	subi	r25, 0x7F	; 127
    13a8:	50 40       	sbci	r21, 0x00	; 0
    13aa:	9a f0       	brmi	.+38     	; 0x13d2 <__mulsf3_pse+0x88>
    13ac:	f1 f0       	breq	.+60     	; 0x13ea <__mulsf3_pse+0xa0>
    13ae:	88 23       	and	r24, r24
    13b0:	4a f0       	brmi	.+18     	; 0x13c4 <__mulsf3_pse+0x7a>
    13b2:	ee 0f       	add	r30, r30
    13b4:	ff 1f       	adc	r31, r31
    13b6:	bb 1f       	adc	r27, r27
    13b8:	66 1f       	adc	r22, r22
    13ba:	77 1f       	adc	r23, r23
    13bc:	88 1f       	adc	r24, r24
    13be:	91 50       	subi	r25, 0x01	; 1
    13c0:	50 40       	sbci	r21, 0x00	; 0
    13c2:	a9 f7       	brne	.-22     	; 0x13ae <__mulsf3_pse+0x64>
    13c4:	9e 3f       	cpi	r25, 0xFE	; 254
    13c6:	51 05       	cpc	r21, r1
    13c8:	80 f0       	brcs	.+32     	; 0x13ea <__mulsf3_pse+0xa0>
    13ca:	0c 94 39 09 	jmp	0x1272	; 0x1272 <__fp_inf>
    13ce:	0c 94 84 09 	jmp	0x1308	; 0x1308 <__fp_szero>
    13d2:	5f 3f       	cpi	r21, 0xFF	; 255
    13d4:	e4 f3       	brlt	.-8      	; 0x13ce <__mulsf3_pse+0x84>
    13d6:	98 3e       	cpi	r25, 0xE8	; 232
    13d8:	d4 f3       	brlt	.-12     	; 0x13ce <__mulsf3_pse+0x84>
    13da:	86 95       	lsr	r24
    13dc:	77 95       	ror	r23
    13de:	67 95       	ror	r22
    13e0:	b7 95       	ror	r27
    13e2:	f7 95       	ror	r31
    13e4:	e7 95       	ror	r30
    13e6:	9f 5f       	subi	r25, 0xFF	; 255
    13e8:	c1 f7       	brne	.-16     	; 0x13da <__mulsf3_pse+0x90>
    13ea:	fe 2b       	or	r31, r30
    13ec:	88 0f       	add	r24, r24
    13ee:	91 1d       	adc	r25, r1
    13f0:	96 95       	lsr	r25
    13f2:	87 95       	ror	r24
    13f4:	97 f9       	bld	r25, 7
    13f6:	08 95       	ret

000013f8 <__unordsf2>:
    13f8:	0e 94 15 09 	call	0x122a	; 0x122a <__fp_cmp>
    13fc:	88 0b       	sbc	r24, r24
    13fe:	99 0b       	sbc	r25, r25
    1400:	08 95       	ret

00001402 <abort>:
    1402:	81 e0       	ldi	r24, 0x01	; 1
    1404:	90 e0       	ldi	r25, 0x00	; 0
    1406:	f8 94       	cli
    1408:	0c 94 33 0b 	jmp	0x1666	; 0x1666 <_exit>

0000140c <malloc>:
    140c:	cf 93       	push	r28
    140e:	df 93       	push	r29
    1410:	82 30       	cpi	r24, 0x02	; 2
    1412:	91 05       	cpc	r25, r1
    1414:	10 f4       	brcc	.+4      	; 0x141a <malloc+0xe>
    1416:	82 e0       	ldi	r24, 0x02	; 2
    1418:	90 e0       	ldi	r25, 0x00	; 0
    141a:	e0 91 df 06 	lds	r30, 0x06DF	; 0x8006df <__flp>
    141e:	f0 91 e0 06 	lds	r31, 0x06E0	; 0x8006e0 <__flp+0x1>
    1422:	20 e0       	ldi	r18, 0x00	; 0
    1424:	30 e0       	ldi	r19, 0x00	; 0
    1426:	c0 e0       	ldi	r28, 0x00	; 0
    1428:	d0 e0       	ldi	r29, 0x00	; 0
    142a:	30 97       	sbiw	r30, 0x00	; 0
    142c:	11 f1       	breq	.+68     	; 0x1472 <malloc+0x66>
    142e:	40 81       	ld	r20, Z
    1430:	51 81       	ldd	r21, Z+1	; 0x01
    1432:	48 17       	cp	r20, r24
    1434:	59 07       	cpc	r21, r25
    1436:	c0 f0       	brcs	.+48     	; 0x1468 <malloc+0x5c>
    1438:	48 17       	cp	r20, r24
    143a:	59 07       	cpc	r21, r25
    143c:	61 f4       	brne	.+24     	; 0x1456 <malloc+0x4a>
    143e:	82 81       	ldd	r24, Z+2	; 0x02
    1440:	93 81       	ldd	r25, Z+3	; 0x03
    1442:	20 97       	sbiw	r28, 0x00	; 0
    1444:	19 f0       	breq	.+6      	; 0x144c <malloc+0x40>
    1446:	9b 83       	std	Y+3, r25	; 0x03
    1448:	8a 83       	std	Y+2, r24	; 0x02
    144a:	2b c0       	rjmp	.+86     	; 0x14a2 <malloc+0x96>
    144c:	90 93 e0 06 	sts	0x06E0, r25	; 0x8006e0 <__flp+0x1>
    1450:	80 93 df 06 	sts	0x06DF, r24	; 0x8006df <__flp>
    1454:	26 c0       	rjmp	.+76     	; 0x14a2 <malloc+0x96>
    1456:	21 15       	cp	r18, r1
    1458:	31 05       	cpc	r19, r1
    145a:	19 f0       	breq	.+6      	; 0x1462 <malloc+0x56>
    145c:	42 17       	cp	r20, r18
    145e:	53 07       	cpc	r21, r19
    1460:	18 f4       	brcc	.+6      	; 0x1468 <malloc+0x5c>
    1462:	9a 01       	movw	r18, r20
    1464:	be 01       	movw	r22, r28
    1466:	df 01       	movw	r26, r30
    1468:	ef 01       	movw	r28, r30
    146a:	02 80       	ldd	r0, Z+2	; 0x02
    146c:	f3 81       	ldd	r31, Z+3	; 0x03
    146e:	e0 2d       	mov	r30, r0
    1470:	dc cf       	rjmp	.-72     	; 0x142a <malloc+0x1e>
    1472:	21 15       	cp	r18, r1
    1474:	31 05       	cpc	r19, r1
    1476:	09 f1       	breq	.+66     	; 0x14ba <malloc+0xae>
    1478:	28 1b       	sub	r18, r24
    147a:	39 0b       	sbc	r19, r25
    147c:	24 30       	cpi	r18, 0x04	; 4
    147e:	31 05       	cpc	r19, r1
    1480:	90 f4       	brcc	.+36     	; 0x14a6 <malloc+0x9a>
    1482:	12 96       	adiw	r26, 0x02	; 2
    1484:	8d 91       	ld	r24, X+
    1486:	9c 91       	ld	r25, X
    1488:	13 97       	sbiw	r26, 0x03	; 3
    148a:	61 15       	cp	r22, r1
    148c:	71 05       	cpc	r23, r1
    148e:	21 f0       	breq	.+8      	; 0x1498 <malloc+0x8c>
    1490:	fb 01       	movw	r30, r22
    1492:	93 83       	std	Z+3, r25	; 0x03
    1494:	82 83       	std	Z+2, r24	; 0x02
    1496:	04 c0       	rjmp	.+8      	; 0x14a0 <malloc+0x94>
    1498:	90 93 e0 06 	sts	0x06E0, r25	; 0x8006e0 <__flp+0x1>
    149c:	80 93 df 06 	sts	0x06DF, r24	; 0x8006df <__flp>
    14a0:	fd 01       	movw	r30, r26
    14a2:	32 96       	adiw	r30, 0x02	; 2
    14a4:	44 c0       	rjmp	.+136    	; 0x152e <malloc+0x122>
    14a6:	fd 01       	movw	r30, r26
    14a8:	e2 0f       	add	r30, r18
    14aa:	f3 1f       	adc	r31, r19
    14ac:	81 93       	st	Z+, r24
    14ae:	91 93       	st	Z+, r25
    14b0:	22 50       	subi	r18, 0x02	; 2
    14b2:	31 09       	sbc	r19, r1
    14b4:	2d 93       	st	X+, r18
    14b6:	3c 93       	st	X, r19
    14b8:	3a c0       	rjmp	.+116    	; 0x152e <malloc+0x122>
    14ba:	20 91 dd 06 	lds	r18, 0x06DD	; 0x8006dd <__brkval>
    14be:	30 91 de 06 	lds	r19, 0x06DE	; 0x8006de <__brkval+0x1>
    14c2:	23 2b       	or	r18, r19
    14c4:	41 f4       	brne	.+16     	; 0x14d6 <malloc+0xca>
    14c6:	20 91 03 01 	lds	r18, 0x0103	; 0x800103 <__malloc_heap_start>
    14ca:	30 91 04 01 	lds	r19, 0x0104	; 0x800104 <__malloc_heap_start+0x1>
    14ce:	30 93 de 06 	sts	0x06DE, r19	; 0x8006de <__brkval+0x1>
    14d2:	20 93 dd 06 	sts	0x06DD, r18	; 0x8006dd <__brkval>
    14d6:	20 91 01 01 	lds	r18, 0x0101	; 0x800101 <__malloc_heap_end>
    14da:	30 91 02 01 	lds	r19, 0x0102	; 0x800102 <__malloc_heap_end+0x1>
    14de:	21 15       	cp	r18, r1
    14e0:	31 05       	cpc	r19, r1
    14e2:	41 f4       	brne	.+16     	; 0x14f4 <malloc+0xe8>
    14e4:	2d b7       	in	r18, 0x3d	; 61
    14e6:	3e b7       	in	r19, 0x3e	; 62
    14e8:	40 91 05 01 	lds	r20, 0x0105	; 0x800105 <__malloc_margin>
    14ec:	50 91 06 01 	lds	r21, 0x0106	; 0x800106 <__malloc_margin+0x1>
    14f0:	24 1b       	sub	r18, r20
    14f2:	35 0b       	sbc	r19, r21
    14f4:	e0 91 dd 06 	lds	r30, 0x06DD	; 0x8006dd <__brkval>
    14f8:	f0 91 de 06 	lds	r31, 0x06DE	; 0x8006de <__brkval+0x1>
    14fc:	e2 17       	cp	r30, r18
    14fe:	f3 07       	cpc	r31, r19
    1500:	a0 f4       	brcc	.+40     	; 0x152a <malloc+0x11e>
    1502:	2e 1b       	sub	r18, r30
    1504:	3f 0b       	sbc	r19, r31
    1506:	28 17       	cp	r18, r24
    1508:	39 07       	cpc	r19, r25
    150a:	78 f0       	brcs	.+30     	; 0x152a <malloc+0x11e>
    150c:	ac 01       	movw	r20, r24
    150e:	4e 5f       	subi	r20, 0xFE	; 254
    1510:	5f 4f       	sbci	r21, 0xFF	; 255
    1512:	24 17       	cp	r18, r20
    1514:	35 07       	cpc	r19, r21
    1516:	48 f0       	brcs	.+18     	; 0x152a <malloc+0x11e>
    1518:	4e 0f       	add	r20, r30
    151a:	5f 1f       	adc	r21, r31
    151c:	50 93 de 06 	sts	0x06DE, r21	; 0x8006de <__brkval+0x1>
    1520:	40 93 dd 06 	sts	0x06DD, r20	; 0x8006dd <__brkval>
    1524:	81 93       	st	Z+, r24
    1526:	91 93       	st	Z+, r25
    1528:	02 c0       	rjmp	.+4      	; 0x152e <malloc+0x122>
    152a:	e0 e0       	ldi	r30, 0x00	; 0
    152c:	f0 e0       	ldi	r31, 0x00	; 0
    152e:	cf 01       	movw	r24, r30
    1530:	df 91       	pop	r29
    1532:	cf 91       	pop	r28
    1534:	08 95       	ret

00001536 <free>:
    1536:	0f 93       	push	r16
    1538:	1f 93       	push	r17
    153a:	cf 93       	push	r28
    153c:	df 93       	push	r29
    153e:	00 97       	sbiw	r24, 0x00	; 0
    1540:	09 f4       	brne	.+2      	; 0x1544 <free+0xe>
    1542:	8c c0       	rjmp	.+280    	; 0x165c <free+0x126>
    1544:	fc 01       	movw	r30, r24
    1546:	32 97       	sbiw	r30, 0x02	; 2
    1548:	13 82       	std	Z+3, r1	; 0x03
    154a:	12 82       	std	Z+2, r1	; 0x02
    154c:	00 91 df 06 	lds	r16, 0x06DF	; 0x8006df <__flp>
    1550:	10 91 e0 06 	lds	r17, 0x06E0	; 0x8006e0 <__flp+0x1>
    1554:	01 15       	cp	r16, r1
    1556:	11 05       	cpc	r17, r1
    1558:	81 f4       	brne	.+32     	; 0x157a <free+0x44>
    155a:	20 81       	ld	r18, Z
    155c:	31 81       	ldd	r19, Z+1	; 0x01
    155e:	82 0f       	add	r24, r18
    1560:	93 1f       	adc	r25, r19
    1562:	20 91 dd 06 	lds	r18, 0x06DD	; 0x8006dd <__brkval>
    1566:	30 91 de 06 	lds	r19, 0x06DE	; 0x8006de <__brkval+0x1>
    156a:	28 17       	cp	r18, r24
    156c:	39 07       	cpc	r19, r25
    156e:	79 f5       	brne	.+94     	; 0x15ce <free+0x98>
    1570:	f0 93 de 06 	sts	0x06DE, r31	; 0x8006de <__brkval+0x1>
    1574:	e0 93 dd 06 	sts	0x06DD, r30	; 0x8006dd <__brkval>
    1578:	71 c0       	rjmp	.+226    	; 0x165c <free+0x126>
    157a:	d8 01       	movw	r26, r16
    157c:	40 e0       	ldi	r20, 0x00	; 0
    157e:	50 e0       	ldi	r21, 0x00	; 0
    1580:	ae 17       	cp	r26, r30
    1582:	bf 07       	cpc	r27, r31
    1584:	50 f4       	brcc	.+20     	; 0x159a <free+0x64>
    1586:	12 96       	adiw	r26, 0x02	; 2
    1588:	2d 91       	ld	r18, X+
    158a:	3c 91       	ld	r19, X
    158c:	13 97       	sbiw	r26, 0x03	; 3
    158e:	ad 01       	movw	r20, r26
    1590:	21 15       	cp	r18, r1
    1592:	31 05       	cpc	r19, r1
    1594:	09 f1       	breq	.+66     	; 0x15d8 <free+0xa2>
    1596:	d9 01       	movw	r26, r18
    1598:	f3 cf       	rjmp	.-26     	; 0x1580 <free+0x4a>
    159a:	9d 01       	movw	r18, r26
    159c:	da 01       	movw	r26, r20
    159e:	33 83       	std	Z+3, r19	; 0x03
    15a0:	22 83       	std	Z+2, r18	; 0x02
    15a2:	60 81       	ld	r22, Z
    15a4:	71 81       	ldd	r23, Z+1	; 0x01
    15a6:	86 0f       	add	r24, r22
    15a8:	97 1f       	adc	r25, r23
    15aa:	82 17       	cp	r24, r18
    15ac:	93 07       	cpc	r25, r19
    15ae:	69 f4       	brne	.+26     	; 0x15ca <free+0x94>
    15b0:	ec 01       	movw	r28, r24
    15b2:	28 81       	ld	r18, Y
    15b4:	39 81       	ldd	r19, Y+1	; 0x01
    15b6:	26 0f       	add	r18, r22
    15b8:	37 1f       	adc	r19, r23
    15ba:	2e 5f       	subi	r18, 0xFE	; 254
    15bc:	3f 4f       	sbci	r19, 0xFF	; 255
    15be:	31 83       	std	Z+1, r19	; 0x01
    15c0:	20 83       	st	Z, r18
    15c2:	8a 81       	ldd	r24, Y+2	; 0x02
    15c4:	9b 81       	ldd	r25, Y+3	; 0x03
    15c6:	93 83       	std	Z+3, r25	; 0x03
    15c8:	82 83       	std	Z+2, r24	; 0x02
    15ca:	45 2b       	or	r20, r21
    15cc:	29 f4       	brne	.+10     	; 0x15d8 <free+0xa2>
    15ce:	f0 93 e0 06 	sts	0x06E0, r31	; 0x8006e0 <__flp+0x1>
    15d2:	e0 93 df 06 	sts	0x06DF, r30	; 0x8006df <__flp>
    15d6:	42 c0       	rjmp	.+132    	; 0x165c <free+0x126>
    15d8:	13 96       	adiw	r26, 0x03	; 3
    15da:	fc 93       	st	X, r31
    15dc:	ee 93       	st	-X, r30
    15de:	12 97       	sbiw	r26, 0x02	; 2
    15e0:	ed 01       	movw	r28, r26
    15e2:	49 91       	ld	r20, Y+
    15e4:	59 91       	ld	r21, Y+
    15e6:	9e 01       	movw	r18, r28
    15e8:	24 0f       	add	r18, r20
    15ea:	35 1f       	adc	r19, r21
    15ec:	e2 17       	cp	r30, r18
    15ee:	f3 07       	cpc	r31, r19
    15f0:	71 f4       	brne	.+28     	; 0x160e <free+0xd8>
    15f2:	80 81       	ld	r24, Z
    15f4:	91 81       	ldd	r25, Z+1	; 0x01
    15f6:	84 0f       	add	r24, r20
    15f8:	95 1f       	adc	r25, r21
    15fa:	02 96       	adiw	r24, 0x02	; 2
    15fc:	11 96       	adiw	r26, 0x01	; 1
    15fe:	9c 93       	st	X, r25
    1600:	8e 93       	st	-X, r24
    1602:	82 81       	ldd	r24, Z+2	; 0x02
    1604:	93 81       	ldd	r25, Z+3	; 0x03
    1606:	13 96       	adiw	r26, 0x03	; 3
    1608:	9c 93       	st	X, r25
    160a:	8e 93       	st	-X, r24
    160c:	12 97       	sbiw	r26, 0x02	; 2
    160e:	e0 e0       	ldi	r30, 0x00	; 0
    1610:	f0 e0       	ldi	r31, 0x00	; 0
    1612:	d8 01       	movw	r26, r16
    1614:	12 96       	adiw	r26, 0x02	; 2
    1616:	8d 91       	ld	r24, X+
    1618:	9c 91       	ld	r25, X
    161a:	13 97       	sbiw	r26, 0x03	; 3
    161c:	00 97       	sbiw	r24, 0x00	; 0
    161e:	19 f0       	breq	.+6      	; 0x1626 <free+0xf0>
    1620:	f8 01       	movw	r30, r16
    1622:	8c 01       	movw	r16, r24
    1624:	f6 cf       	rjmp	.-20     	; 0x1612 <free+0xdc>
    1626:	8d 91       	ld	r24, X+
    1628:	9c 91       	ld	r25, X
    162a:	98 01       	movw	r18, r16
    162c:	2e 5f       	subi	r18, 0xFE	; 254
    162e:	3f 4f       	sbci	r19, 0xFF	; 255
    1630:	82 0f       	add	r24, r18
    1632:	93 1f       	adc	r25, r19
    1634:	20 91 dd 06 	lds	r18, 0x06DD	; 0x8006dd <__brkval>
    1638:	30 91 de 06 	lds	r19, 0x06DE	; 0x8006de <__brkval+0x1>
    163c:	28 17       	cp	r18, r24
    163e:	39 07       	cpc	r19, r25
    1640:	69 f4       	brne	.+26     	; 0x165c <free+0x126>
    1642:	30 97       	sbiw	r30, 0x00	; 0
    1644:	29 f4       	brne	.+10     	; 0x1650 <free+0x11a>
    1646:	10 92 e0 06 	sts	0x06E0, r1	; 0x8006e0 <__flp+0x1>
    164a:	10 92 df 06 	sts	0x06DF, r1	; 0x8006df <__flp>
    164e:	02 c0       	rjmp	.+4      	; 0x1654 <free+0x11e>
    1650:	13 82       	std	Z+3, r1	; 0x03
    1652:	12 82       	std	Z+2, r1	; 0x02
    1654:	10 93 de 06 	sts	0x06DE, r17	; 0x8006de <__brkval+0x1>
    1658:	00 93 dd 06 	sts	0x06DD, r16	; 0x8006dd <__brkval>
    165c:	df 91       	pop	r29
    165e:	cf 91       	pop	r28
    1660:	1f 91       	pop	r17
    1662:	0f 91       	pop	r16
    1664:	08 95       	ret

00001666 <_exit>:
    1666:	f8 94       	cli

00001668 <__stop_program>:
    1668:	ff cf       	rjmp	.-2      	; 0x1668 <__stop_program>
